(dp0
VT890125.79
p1
(I2753
I3
tp2
sVT990430.223
p3
(I893
I2
tp4
sVT990430.220
p5
(I891
I2
tp6
sVT990430.221
p7
(I892
I2
tp8
sVT990430.226
p9
(I896
I2
tp10
sVT990430.227
p11
(I897
I2
tp12
sVT990430.224
p13
(I894
I1
tp14
sVT990430.225
p15
(I895
I1
tp16
sVT990430.228
p17
(I898
I2
tp18
sVT990430.229
p19
(I899
I2
tp20
sVT890328.55
p21
(I2835
I3
tp22
sVT970909.139
p23
(I2653
I2
tp24
sVT920714.42
p25
(I1385
I3
tp26
sVT920714.49
p27
(I1387
I2
tp28
sVT920714.48
p29
(I1386
I2
tp30
sVT990505.186
p31
(I750
I1
tp32
sVT990505.187
p33
(I751
I1
tp34
sVT951014.359
p35
(I1662
I2
tp36
sVT951014.358
p37
(I1661
I1
tp38
sVT990505.182
p39
(I748
I3
tp40
sVT990505.183
p41
(I749
I2
tp42
sVT951014.353
p43
(I1658
I1
tp44
sVT951014.352
p45
(I1657
I2
tp46
sVT951014.351
p47
(I1656
I2
tp48
sVT951014.357
p49
(I1660
I2
tp50
sVT951014.356
p51
(I1659
I3
tp52
sVT990505.189
p53
(I752
I3
tp54
sVT990505.141
p55
(I725
I1
tp56
sVT890403.154
p57
(I2848
I1
tp58
sVT890220.119
p59
(I2791
I2
tp60
sVT951016.171
p61
(I1782
I2
tp62
sVT951016.170
p63
(I1781
I1
tp64
sVT970208.96
p65
(I2514
I3
tp66
sVT951014.287
p67
(I1619
I1
tp68
sVT951014.286
p69
(I1618
I2
tp70
sVT951014.282
p71
(I1617
I3
tp72
sVT890126.290
p73
(I2755
I2
tp74
sVT951014.288
p75
(I1620
I3
tp76
sVT970621.37
p77
(I2593
I2
tp78
sVT970624.131
p79
(I2596
I3
tp80
sVT951017.58
p81
(I1880
I1
tp82
sVT990503.67
p83
(I367
I2
tp84
sVT990503.65
p85
(I366
I2
tp86
sVT890509.71
p87
(I2905
I2
tp88
sVT970827.100
p89
(I2649
I3
tp90
sVT990503.68
p91
(I368
I2
tp92
sVT990503.69
p93
(I369
I1
tp94
sVT951020.157
p95
(I2398
I2
tp96
sVT970502.62
p97
(I2563
I1
tp98
sVT990504.138
p99
(I575
I2
tp100
sVT990504.139
p101
(I576
I2
tp102
sVT990504.132
p103
(I569
I1
tp104
sVT990504.133
p105
(I570
I1
tp106
sVT990504.130
p107
(I567
I1
tp108
sVT990504.131
p109
(I568
I1
tp110
sVT990504.136
p111
(I573
I1
tp112
sVT990504.137
p113
(I574
I2
tp114
sVT990504.134
p115
(I571
I1
tp116
sVT990504.135
p117
(I572
I1
tp118
sVT990505.168
p119
(I742
I2
tp120
sVT990505.169
p121
(I743
I1
tp122
sVT990505.162
p123
(I738
I3
tp124
sVT990505.164
p125
(I739
I2
tp126
sVT990505.165
p127
(I740
I1
tp128
sVT990505.166
p129
(I741
I2
tp130
sVT890330.158
p131
(I2841
I2
tp132
sVT890505.173
p133
(I2899
I3
tp134
sVT970408.57
p135
(I2548
I2
tp136
sVT890209.83
p137
(I2769
I2
tp138
sVT990506.246
p139
(I329
I2
tp140
sVT990506.247
p141
(I330
I1
tp142
sVT990506.244
p143
(I327
I1
tp144
sVT990506.245
p145
(I328
I1
tp146
sVT990506.242
p147
(I325
I2
tp148
sVT990506.243
p149
(I326
I2
tp150
sVT990506.240
p151
(I323
I2
tp152
sVT990506.241
p153
(I324
I2
tp154
sVT990506.248
p155
(I331
I1
tp156
sVT990506.249
p157
(I332
I1
tp158
sVT890506.23
p159
(I2900
I2
tp160
sVT951018.177
p161
(I2064
I1
tp162
sVT951018.176
p163
(I2063
I1
tp164
sVT951018.174
p165
(I2062
I1
tp166
sVT951018.173
p167
(I2061
I3
tp168
sVT951018.170
p169
(I2060
I1
tp170
sVT951018.179
p171
(I2066
I1
tp172
sVT951018.178
p173
(I2065
I1
tp174
sVT920710.136
p175
(I1178
I2
tp176
sVT920710.137
p177
(I1179
I2
tp178
sVT920710.133
p179
(I1177
I3
tp180
sVT971101.15
p181
(I2686
I2
tp182
sVT920710.138
p183
(I1180
I2
tp184
sVT920710.139
p185
(I1181
I1
tp186
sVT890130.95
p187
(I2758
I3
tp188
sVT890304.163
p189
(I2806
I2
tp190
sVT890404.176
p191
(I2855
I2
tp192
sVT951014.59
p193
(I1538
I1
tp194
sVT951014.53
p195
(I1535
I2
tp196
sVT951014.52
p197
(I1534
I2
tp198
sVT951014.55
p199
(I1536
I2
tp200
sVT971209.27
p201
(I2716
I1
tp202
sVT951014.57
p203
(I1537
I2
tp204
sVT990504.58
p205
(I509
I3
tp206
sVT990504.59
p207
(I510
I3
tp208
sVT990504.56
p209
(I507
I3
tp210
sVT990504.57
p211
(I508
I1
tp212
sVT990504.55
p213
(I506
I3
tp214
sVT990504.52
p215
(I505
I1
tp216
sVT990504.50
p217
(I504
I1
tp218
sVT990507.175
p219
(I119
I2
tp220
sVT990507.174
p221
(I118
I1
tp222
sVT990507.173
p223
(I117
I2
tp224
sVT920710.221
p225
(I1238
I1
tp226
sVT920710.222
p227
(I1239
I2
tp228
sVT920710.223
p229
(I1240
I2
tp230
sVT990507.179
p231
(I121
I2
tp232
sVT990507.178
p233
(I120
I2
tp234
sVT920710.38
p235
(I1113
I2
tp236
sVT920710.39
p237
(I1114
I3
tp238
sVT920710.32
p239
(I1107
I1
tp240
sVT920710.33
p241
(I1108
I2
tp242
sVT920710.30
p243
(I1105
I2
tp244
sVT920710.31
p245
(I1106
I2
tp246
sVT920710.36
p247
(I1111
I1
tp248
sVT920710.37
p249
(I1112
I1
tp250
sVT920710.34
p251
(I1109
I3
tp252
sVT920710.35
p253
(I1110
I3
tp254
sVT990506.50
p255
(I180
I3
tp256
sVT990506.51
p257
(I181
I2
tp258
sVT990506.52
p259
(I182
I1
tp260
sVT990506.53
p261
(I183
I2
tp262
sVT990506.54
p263
(I184
I2
tp264
sVT990506.55
p265
(I185
I2
tp266
sVT920713.88
p267
(I1301
I1
tp268
sVT920713.89
p269
(I1302
I1
tp270
sVT920713.86
p271
(I1299
I1
tp272
sVT920713.87
p273
(I1300
I1
tp274
sVT920713.84
p275
(I1298
I1
tp276
sVT920713.82
p277
(I1296
I3
tp278
sVT920713.83
p279
(I1297
I2
tp280
sVT920713.81
p281
(I1295
I2
tp282
sVT990505.78
p283
(I674
I2
tp284
sVT890215.83
p285
(I2777
I3
tp286
sVT990505.73
p287
(I672
I3
tp288
sVT990505.72
p289
(I671
I1
tp290
sVT990505.70
p291
(I670
I1
tp292
sVT990505.74
p293
(I673
I2
tp294
sVT970614.80
p295
(I2591
I2
tp296
sVT990430.70
p297
(I788
I1
tp298
sVT990430.71
p299
(I789
I1
tp300
sVT990430.72
p301
(I790
I2
tp302
sVT990430.73
p303
(I791
I2
tp304
sVT990507.39
p305
(I30
I2
tp306
sVT990430.75
p307
(I792
I2
tp308
sVT990430.76
p309
(I793
I2
tp310
sVT990507.35
p311
(I27
I2
tp312
sVT990507.34
p313
(I26
I2
tp314
sVT990507.37
p315
(I29
I3
tp316
sVT990507.36
p317
(I28
I3
tp318
sVT990507.31
p319
(I24
I1
tp320
sVT990507.30
p321
(I23
I1
tp322
sVT990507.33
p323
(I25
I3
tp324
sVT951017.57
p325
(I1879
I2
tp326
sVT890214.47
p327
(I2775
I3
tp328
sVT951020.279
p329
(I2485
I2
tp330
sVT990430.98
p331
(I808
I3
tp332
sVT990430.99
p333
(I809
I1
tp334
sVT951020.278
p335
(I2484
I2
tp336
sVT990430.90
p337
(I804
I3
tp338
sVT990430.96
p339
(I806
I1
tp340
sVT990430.97
p341
(I807
I2
tp342
sVT990430.95
p343
(I805
I3
tp344
sVT951020.239
p345
(I2458
I2
tp346
sVT951020.235
p347
(I2455
I2
tp348
sVT951020.234
p349
(I2454
I1
tp350
sVT951020.237
p351
(I2457
I2
tp352
sVT951020.236
p353
(I2456
I3
tp354
sVT951020.231
p355
(I2451
I1
tp356
sVT951020.230
p357
(I2450
I1
tp358
sVT951020.233
p359
(I2453
I1
tp360
sVT951020.232
p361
(I2452
I1
tp362
sVT990507.11
p363
(I7
I1
tp364
sVT951016.35
p365
(I1707
I2
tp366
sVT951020.271
p367
(I2479
I2
tp368
sVT951016.37
p369
(I1709
I2
tp370
sVT951016.36
p371
(I1708
I2
tp372
sVT951016.30
p373
(I1706
I1
tp374
sVT920711.77
p375
(I1002
I1
tp376
sVT951016.38
p377
(I1710
I2
tp378
sVT890424.94
p379
(I2885
I2
tp380
sVT951020.272
p381
(I2480
I1
tp382
sVT951016.9
p383
(I1693
I2
tp384
sVT951016.6
p385
(I1692
I2
tp386
sVT951016.4
p387
(I1691
I2
tp388
sVT971009.204
p389
(I2672
I3
tp390
sVT951020.84
p391
(I2374
I2
tp392
sVT990430.257
p393
(I920
I1
tp394
sVT990430.256
p395
(I919
I2
tp396
sVT990430.255
p397
(I918
I2
tp398
sVT990430.254
p399
(I917
I2
tp400
sVT990430.252
p401
(I916
I1
tp402
sVT990430.251
p403
(I915
I2
tp404
sVT990430.259
p405
(I921
I3
tp406
sVT970826.161
p407
(I2648
I2
tp408
sVT920714.197
p409
(I1485
I3
tp410
sVT920714.36
p411
(I1381
I1
tp412
sVT920714.37
p413
(I1382
I1
tp414
sVT920714.34
p415
(I1379
I2
tp416
sVT920714.35
p417
(I1380
I1
tp418
sVT951016.137
p419
(I1762
I2
tp420
sVT920714.33
p421
(I1378
I3
tp422
sVT920714.30
p423
(I1376
I3
tp424
sVT920714.31
p425
(I1377
I3
tp426
sVT971007.258
p427
(I2671
I2
tp428
sVT890313.8
p429
(I2815
I2
tp430
sVT920714.38
p431
(I1383
I2
tp432
sVT920714.39
p433
(I1384
I2
tp434
sVT951014.348
p435
(I1654
I2
tp436
sVT951014.349
p437
(I1655
I2
tp438
sVT970712.166
p439
(I2617
I3
tp440
sVT951014.340
p441
(I1647
I1
tp442
sVT951014.341
p443
(I1648
I2
tp444
sVT951014.343
p445
(I1649
I2
tp446
sVT951014.344
p447
(I1650
I2
tp448
sVT951014.345
p449
(I1651
I1
tp450
sVT951014.346
p451
(I1652
I2
tp452
sVT951014.347
p453
(I1653
I2
tp454
sVT951016.163
p455
(I1776
I1
tp456
sVT951016.160
p457
(I1775
I3
tp458
sVT951016.166
p459
(I1778
I1
tp460
sVT951016.167
p461
(I1779
I1
tp462
sVT951016.164
p463
(I1777
I2
tp464
sVT951016.169
p465
(I1780
I1
tp466
sVT970711.94
p467
(I2615
I2
tp468
sVT951014.296
p469
(I1622
I3
tp470
sVT951014.297
p471
(I1623
I1
tp472
sVT951014.295
p473
(I1621
I2
tp474
sVT890218.122
p475
(I2788
I2
tp476
sVT890322.93
p477
(I2828
I2
tp478
sVT890227.28
p479
(I2798
I3
tp480
sVT890227.29
p481
(I2799
I2
tp482
sVT971111.168
p483
(I2698
I2
tp484
sVT890412.75
p485
(I2868
I3
tp486
sVT890412.74
p487
(I2867
I3
tp488
sVT970527.167
p489
(I2579
I3
tp490
sVT970203.89
p491
(I2511
I2
tp492
sVT890318.95
p493
(I2822
I2
tp494
sVT990503.75
p495
(I373
I3
tp496
sVT970123.306
p497
(I2509
I2
tp498
sVT990503.77
p499
(I375
I2
tp500
sVT990503.76
p501
(I374
I2
tp502
sVT990503.70
p503
(I370
I1
tp504
sVT990503.73
p505
(I372
I1
tp506
sVT990503.72
p507
(I371
I1
tp508
sVT990503.79
p509
(I376
I1
tp510
sVT920714.185
p511
(I1475
I1
tp512
sVT920714.184
p513
(I1474
I2
tp514
sVT920714.187
p515
(I1477
I2
tp516
sVT920714.186
p517
(I1476
I2
tp518
sVT920714.181
p519
(I1473
I2
tp520
sVT920714.180
p521
(I1472
I2
tp522
sVT920711.122
p523
(I1031
I2
tp524
sVT920714.189
p525
(I1479
I2
tp526
sVT920714.188
p527
(I1478
I2
tp528
sVT990430.26
p529
(I778
I1
tp530
sVT990504.149
p531
(I583
I3
tp532
sVT990504.148
p533
(I582
I1
tp534
sVT990504.147
p535
(I581
I2
tp536
sVT951019.17
p537
(I2143
I2
tp538
sVT990504.145
p539
(I580
I1
tp540
sVT990504.144
p541
(I579
I2
tp542
sVT990504.141
p543
(I578
I2
tp544
sVT990504.140
p545
(I577
I2
tp546
sVT951020.12
p547
(I2334
I2
tp548
sVT890323.83
p549
(I2830
I2
tp550
sVT990505.155
p551
(I735
I2
tp552
sVT990505.157
p553
(I737
I2
tp554
sVT990505.156
p555
(I736
I1
tp556
sVT951020.10
p557
(I2333
I2
tp558
sVT990505.153
p559
(I734
I2
tp560
sVT990505.152
p561
(I733
I3
tp562
sVT951020.17
p563
(I2337
I1
tp564
sVT951020.14
p565
(I2335
I2
tp566
sVT971205.263
p567
(I2713
I2
tp568
sVT970305.162
p569
(I2528
I2
tp570
sVT951018.164
p571
(I2056
I1
tp572
sVT951018.166
p573
(I2057
I3
tp574
sVT970705.260
p575
(I2609
I2
tp576
sVT951018.161
p577
(I2055
I1
tp578
sVT951018.168
p579
(I2058
I3
tp580
sVT951018.169
p581
(I2059
I3
tp582
sVT951014.160
p583
(I1570
I3
tp584
sVT971022.234
p585
(I2678
I3
tp586
sVT970210.144
p587
(I2515
I3
tp588
sVT951020.273
p589
(I2481
I1
tp590
sVT990506.189
p591
(I283
I1
tp592
sVT990506.188
p593
(I282
I2
tp594
sVT951017.59
p595
(I1881
I2
tp596
sVT990506.180
p597
(I276
I2
tp598
sVT990506.183
p599
(I278
I1
tp600
sVT990506.182
p601
(I277
I1
tp602
sVT990506.185
p603
(I279
I3
tp604
sVT990506.187
p605
(I281
I2
tp606
sVT990506.186
p607
(I280
I2
tp608
sVT951019.240
p609
(I2284
I1
tp610
sVT951019.241
p611
(I2285
I1
tp612
sVT951014.64
p613
(I1540
I2
tp614
sVT951014.65
p615
(I1541
I1
tp616
sVT951014.66
p617
(I1542
I2
tp618
sVT970612.280
p619
(I2589
I2
tp620
sVT951014.61
p621
(I1539
I2
tp622
sVT951019.253
p623
(I2291
I3
tp624
sVT951019.251
p625
(I2290
I2
tp626
sVT951019.243
p627
(I2286
I2
tp628
sVT990504.49
p629
(I503
I1
tp630
sVT990504.48
p631
(I502
I1
tp632
sVT990504.45
p633
(I499
I2
tp634
sVT951019.244
p635
(I2287
I2
tp636
sVT990504.47
p637
(I501
I1
tp638
sVT990504.46
p639
(I500
I2
tp640
sVT990504.41
p641
(I496
I2
tp642
sVT990504.40
p643
(I495
I1
tp644
sVT990504.43
p645
(I498
I1
tp646
sVT990504.42
p647
(I497
I2
tp648
sVT890302.212
p649
(I2803
I2
tp650
sVT920710.215
p651
(I1236
I3
tp652
sVT920710.214
p653
(I1235
I2
tp654
sVT920710.216
p655
(I1237
I2
tp656
sVT920710.210
p657
(I1233
I1
tp658
sVT920710.212
p659
(I1234
I2
tp660
sVT951019.248
p661
(I2288
I2
tp662
sVT920710.21
p663
(I1099
I3
tp664
sVT920710.22
p665
(I1100
I1
tp666
sVT920710.25
p667
(I1102
I2
tp668
sVT920710.24
p669
(I1101
I1
tp670
sVT920710.27
p671
(I1104
I2
tp672
sVT920710.26
p673
(I1103
I2
tp674
sVT951020.22
p675
(I2339
I2
tp676
sVT890404.58
p677
(I2851
I3
tp678
sVT990506.44
p679
(I177
I2
tp680
sVT920713.99
p681
(I1311
I2
tp682
sVT920713.98
p683
(I1310
I2
tp684
sVT990506.41
p685
(I176
I1
tp686
sVT920713.95
p687
(I1307
I2
tp688
sVT920713.94
p689
(I1306
I2
tp690
sVT920713.97
p691
(I1309
I2
tp692
sVT920713.96
p693
(I1308
I1
tp694
sVT920713.90
p695
(I1303
I2
tp696
sVT990506.49
p697
(I179
I1
tp698
sVT920713.92
p699
(I1304
I1
tp700
sVT920710.109
p701
(I1166
I2
tp702
sVT920710.108
p703
(I1165
I2
tp704
sVT920711.82
p705
(I1005
I1
tp706
sVT920711.83
p707
(I1006
I1
tp708
sVT920711.86
p709
(I1007
I1
tp710
sVT920710.101
p711
(I1159
I1
tp712
sVT920710.100
p713
(I1158
I1
tp714
sVT920710.103
p715
(I1161
I1
tp716
sVT920710.102
p717
(I1160
I1
tp718
sVT920710.105
p719
(I1162
I2
tp720
sVT920710.107
p721
(I1164
I1
tp722
sVT920710.106
p723
(I1163
I2
tp724
sVT920711.68
p725
(I997
I1
tp726
sVT920711.69
p727
(I998
I1
tp728
sVT920711.62
p729
(I992
I3
tp730
sVT920711.63
p731
(I993
I3
tp732
sVT920711.61
p733
(I991
I1
tp734
sVT920711.66
p735
(I996
I2
tp736
sVT920711.64
p737
(I994
I3
tp738
sVT920711.65
p739
(I995
I3
tp740
sVT990430.67
p741
(I786
I2
tp742
sVT990430.65
p743
(I785
I2
tp744
sVT990430.62
p745
(I784
I1
tp746
sVT951017.49
p747
(I1872
I3
tp748
sVT951017.48
p749
(I1871
I1
tp750
sVT951020.56
p751
(I2360
I2
tp752
sVT951017.46
p753
(I1870
I2
tp754
sVT951020.54
p755
(I2359
I2
tp756
sVT951020.52
p757
(I2357
I2
tp758
sVT951017.42
p759
(I1869
I2
tp760
sVT990430.69
p761
(I787
I1
tp762
sVT951020.51
p763
(I2356
I2
tp764
sVT990507.168
p765
(I115
I2
tp766
sVT990507.169
p767
(I116
I3
tp768
sVT890407.188
p769
(I2859
I2
tp770
sVT990507.162
p771
(I110
I3
tp772
sVT990507.160
p773
(I108
I1
tp774
sVT990507.161
p775
(I109
I1
tp776
sVT990507.166
p777
(I113
I2
tp778
sVT990507.167
p779
(I114
I2
tp780
sVT990507.164
p781
(I111
I2
tp782
sVT990507.165
p783
(I112
I2
tp784
sVT990430.89
p785
(I803
I2
tp786
sVT990430.88
p787
(I802
I1
tp788
sVT990430.81
p789
(I796
I1
tp790
sVT990430.80
p791
(I795
I1
tp792
sVT990430.83
p793
(I797
I2
tp794
sVT990430.85
p795
(I799
I2
tp796
sVT990430.84
p797
(I798
I2
tp798
sVT990430.87
p799
(I801
I2
tp800
sVT990430.86
p801
(I800
I2
tp802
sVT951020.222
p803
(I2443
I2
tp804
sVT951020.226
p805
(I2446
I2
tp806
sVT951020.227
p807
(I2447
I2
tp808
sVT951020.224
p809
(I2444
I3
tp810
sVT951020.225
p811
(I2445
I2
tp812
sVT951020.228
p813
(I2448
I3
tp814
sVT951019.108
p815
(I2196
I1
tp816
sVT970312.181
p817
(I2534
I2
tp818
sVT951020.21
p819
(I2338
I2
tp820
sVT951014.191
p821
(I1589
I1
tp822
sVT951014.190
p823
(I1588
I1
tp824
sVT951014.193
p825
(I1591
I2
tp826
sVT951014.192
p827
(I1590
I1
tp828
sVT951014.195
p829
(I1593
I2
tp830
sVT951014.194
p831
(I1592
I2
tp832
sVT951014.197
p833
(I1594
I2
tp834
sVT990430.244
p835
(I909
I3
tp836
sVT990430.245
p837
(I910
I1
tp838
sVT990430.246
p839
(I911
I1
tp840
sVT990430.247
p841
(I912
I2
tp842
sVT990430.240
p843
(I906
I2
tp844
sVT990430.241
p845
(I907
I1
tp846
sVT990430.242
p847
(I908
I1
tp848
sVT990430.248
p849
(I913
I2
tp850
sVT990430.249
p851
(I914
I1
tp852
sVT990504.91
p853
(I536
I1
tp854
sVT990504.96
p855
(I541
I1
tp856
sVT920714.25
p857
(I1372
I1
tp858
sVT971018.291
p859
(I2675
I1
tp860
sVT920714.27
p861
(I1374
I2
tp862
sVT920714.26
p863
(I1373
I2
tp864
sVT920714.21
p865
(I1370
I1
tp866
sVT920714.20
p867
(I1369
I1
tp868
sVT920714.22
p869
(I1371
I1
tp870
sVT920714.28
p871
(I1375
I2
tp872
sVT970625.93
p873
(I2598
I2
tp874
sVT970712.151
p875
(I2616
I2
tp876
sVT951014.378
p877
(I1677
I1
tp878
sVT951014.375
p879
(I1674
I2
tp880
sVT951014.374
p881
(I1673
I2
tp882
sVT951014.377
p883
(I1676
I1
tp884
sVT951014.376
p885
(I1675
I2
tp886
sVT951014.371
p887
(I1671
I2
tp888
sVT951014.370
p889
(I1670
I2
tp890
sVT951014.373
p891
(I1672
I1
tp892
sVT951016.117
p893
(I1757
I3
tp894
sVT951016.116
p895
(I1756
I2
tp896
sVT951016.115
p897
(I1755
I2
tp898
sVT951016.114
p899
(I1754
I2
tp900
sVT951016.112
p901
(I1753
I1
tp902
sVT951016.111
p903
(I1752
I3
tp904
sVT951016.110
p905
(I1751
I2
tp906
sVT890210.143
p907
(I2772
I2
tp908
sVT970118.214
p909
(I2507
I2
tp910
sVT951019.69
p911
(I2178
I1
tp912
sVT970918.138
p913
(I2655
I2
tp914
sVT951019.68
p915
(I2177
I2
tp916
sVT890313.74
p917
(I2817
I3
tp918
sVT890508.211
p919
(I2904
I1
tp920
sVT890104.86
p921
(I2736
I2
tp922
sVT951019.63
p923
(I2174
I2
tp924
sVT951019.61
p925
(I2173
I2
tp926
sVT951018.181
p927
(I2067
I1
tp928
sVT951019.67
p929
(I2176
I1
tp930
sVT990503.44
p931
(I357
I1
tp932
sVT971113.283
p933
(I2700
I2
tp934
sVT951019.64
p935
(I2175
I1
tp936
sVT990505.18
p937
(I636
I1
tp938
sVT920710.118
p939
(I1174
I1
tp940
sVT920711.90
p941
(I1010
I1
tp942
sVT971028.153
p943
(I2682
I2
tp944
sVT990504.159
p945
(I587
I1
tp946
sVT990504.154
p947
(I584
I2
tp948
sVT990504.156
p949
(I585
I2
tp950
sVT990504.157
p951
(I586
I1
tp952
sVT990505.142
p953
(I726
I1
tp954
sVT990505.143
p955
(I727
I1
tp956
sVT920710.115
p957
(I1172
I3
tp958
sVT990505.146
p959
(I729
I1
tp960
sVT990505.147
p961
(I730
I2
tp962
sVT990505.145
p963
(I728
I1
tp964
sVT990505.148
p965
(I731
I2
tp966
sVT990505.149
p967
(I732
I2
tp968
sVT920711.99
p969
(I1018
I2
tp970
sVT970825.143
p971
(I2646
I2
tp972
sVT970729.129
p973
(I2624
I2
tp974
sVT890125.51
p975
(I2752
I2
tp976
sVT970925.275
p977
(I2661
I2
tp978
sVT890420.35
p979
(I2878
I3
tp980
sVT890315.88
p981
(I2821
I3
tp982
sVT951017.185
p983
(I1935
I1
tp984
sVT951018.153
p985
(I2051
I2
tp986
sVT951018.152
p987
(I2050
I2
tp988
sVT951018.154
p989
(I2052
I2
tp990
sVT951018.157
p991
(I2054
I2
tp992
sVT951018.156
p993
(I2053
I1
tp994
sVT990506.94
p995
(I211
I1
tp996
sVT920714.199
p997
(I1486
I3
tp998
sVT990506.95
p999
(I212
I1
tp1000
sVT920714.192
p1001
(I1482
I1
tp1002
sVT920714.190
p1003
(I1480
I1
tp1004
sVT920714.191
p1005
(I1481
I1
tp1006
sVT920714.196
p1007
(I1484
I3
tp1008
sVT920713.40
p1009
(I1268
I1
tp1010
sVT920714.194
p1011
(I1483
I3
tp1012
sVT990506.97
p1013
(I214
I1
tp1014
sVT971103.272
p1015
(I2690
I2
tp1016
sVT890404.155
p1017
(I2854
I2
tp1018
sVT990506.197
p1019
(I289
I1
tp1020
sVT990506.194
p1021
(I287
I2
tp1022
sVT990506.195
p1023
(I288
I2
tp1024
sVT990506.192
p1025
(I285
I3
tp1026
sVT990506.193
p1027
(I286
I2
tp1028
sVT990506.191
p1029
(I284
I3
tp1030
sVT890111.50
p1031
(I2737
I3
tp1032
sVT890428.153
p1033
(I2892
I2
tp1034
sVT951014.75
p1035
(I1543
I2
tp1036
sVT970128.241
p1037
(I2510
I2
tp1038
sVT990504.70
p1039
(I517
I1
tp1040
sVT990504.71
p1041
(I518
I1
tp1042
sVT990504.72
p1043
(I519
I1
tp1044
sVT990504.73
p1045
(I520
I3
tp1046
sVT990504.74
p1047
(I521
I1
tp1048
sVT990504.75
p1049
(I522
I2
tp1050
sVT990504.76
p1051
(I523
I1
tp1052
sVT990504.77
p1053
(I524
I2
tp1054
sVT990504.78
p1055
(I525
I2
tp1056
sVT990504.79
p1057
(I526
I2
tp1058
sVT970217.58
p1059
(I2519
I2
tp1060
sVT951016.85
p1061
(I1739
I2
tp1062
sVT920710.202
p1063
(I1231
I1
tp1064
sVT920710.203
p1065
(I1232
I2
tp1066
sVT920710.200
p1067
(I1230
I1
tp1068
sVT951014.394
p1069
(I1689
I3
tp1070
sVT990507.182
p1071
(I124
I2
tp1072
sVT951018.54
p1073
(I2021
I2
tp1074
sVT970705.180
p1075
(I2608
I2
tp1076
sVT951019.3
p1077
(I2138
I2
tp1078
sVT990504.98
p1079
(I543
I2
tp1080
sVT890322.88
p1081
(I2827
I2
tp1082
sVT920710.18
p1083
(I1098
I3
tp1084
sVT990504.92
p1085
(I537
I1
tp1086
sVT990504.93
p1087
(I538
I1
tp1088
sVT920710.16
p1089
(I1096
I2
tp1090
sVT920710.17
p1091
(I1097
I1
tp1092
sVT920710.10
p1093
(I1095
I2
tp1094
sVT990504.97
p1095
(I542
I2
tp1096
sVT990504.94
p1097
(I539
I1
tp1098
sVT990504.95
p1099
(I540
I1
tp1100
sVT951018.53
p1101
(I2020
I2
tp1102
sVT920711.193
p1103
(I1070
I1
tp1104
sVT951018.52
p1105
(I2019
I3
tp1106
sVT920711.97
p1107
(I1017
I2
tp1108
sVT920711.96
p1109
(I1016
I1
tp1110
sVT920711.95
p1111
(I1015
I2
tp1112
sVT920711.94
p1113
(I1014
I1
tp1114
sVT920711.93
p1115
(I1013
I1
tp1116
sVT920711.92
p1117
(I1012
I1
tp1118
sVT920711.91
p1119
(I1011
I1
tp1120
sVT920710.119
p1121
(I1175
I2
tp1122
sVT951020.26
p1123
(I2341
I1
tp1124
sVT920710.117
p1125
(I1173
I1
tp1126
sVT920710.114
p1127
(I1171
I2
tp1128
sVT920711.76
p1129
(I1001
I1
tp1130
sVT920710.112
p1131
(I1169
I2
tp1132
sVT920710.113
p1133
(I1170
I3
tp1134
sVT920710.110
p1135
(I1167
I3
tp1136
sVT920710.111
p1137
(I1168
I2
tp1138
sVT920713.48
p1139
(I1274
I2
tp1140
sVT920713.49
p1141
(I1275
I2
tp1142
sVT990506.98
p1143
(I215
I2
tp1144
sVT990506.99
p1145
(I216
I1
tp1146
sVT951017.186
p1147
(I1936
I3
tp1148
sVT920713.42
p1149
(I1270
I3
tp1150
sVT920713.43
p1151
(I1271
I3
tp1152
sVT990506.96
p1153
(I213
I2
tp1154
sVT920713.41
p1155
(I1269
I2
tp1156
sVT920713.47
p1157
(I1273
I2
tp1158
sVT920713.45
p1159
(I1272
I3
tp1160
sVT920711.79
p1161
(I1004
I1
tp1162
sVT920711.78
p1163
(I1003
I2
tp1164
sVT920711.71
p1165
(I999
I1
tp1166
sVT951020.49
p1167
(I2355
I2
tp1168
sVT920711.195
p1169
(I1072
I3
tp1170
sVT920711.194
p1171
(I1071
I1
tp1172
sVT920711.75
p1173
(I1000
I1
tp1174
sVT920711.192
p1175
(I1069
I1
tp1176
sVT920711.191
p1177
(I1068
I3
tp1178
sVT920711.190
p1179
(I1067
I2
tp1180
sVT990507.17
p1181
(I12
I1
tp1182
sVT990507.16
p1183
(I11
I1
tp1184
sVT990507.15
p1185
(I10
I2
tp1186
sVT990507.13
p1187
(I9
I2
tp1188
sVT990507.12
p1189
(I8
I2
tp1190
sVT920711.209
p1191
(I1081
I3
tp1192
sVT920711.208
p1193
(I1080
I3
tp1194
sVT920711.207
p1195
(I1079
I2
tp1196
sVT920711.206
p1197
(I1078
I3
tp1198
sVT951020.47
p1199
(I2354
I1
tp1200
sVT990507.10
p1201
(I6
I1
tp1202
sVT920711.203
p1203
(I1076
I1
tp1204
sVT920711.202
p1205
(I1075
I1
tp1206
sVT990507.19
p1207
(I14
I3
tp1208
sVT990507.18
p1209
(I13
I1
tp1210
sVT951014.3
p1211
(I1507
I2
tp1212
sVT990507.119
p1213
(I78
I2
tp1214
sVT990507.118
p1215
(I77
I0
tp1216
sVT990507.117
p1217
(I76
I1
tp1218
sVT990507.116
p1219
(I75
I2
tp1220
sVT890221.159
p1221
(I2793
I2
tp1222
sVT990507.114
p1223
(I74
I1
tp1224
sVT990507.113
p1225
(I73
I3
tp1226
sVT990507.112
p1227
(I72
I3
tp1228
sVT990507.111
p1229
(I71
I3
tp1230
sVT920711.204
p1231
(I1077
I3
tp1232
sVT951020.41
p1233
(I2351
I2
tp1234
sVT951020.257
p1235
(I2469
I2
tp1236
sVT951020.253
p1237
(I2468
I2
tp1238
sVT920711.201
p1239
(I1074
I2
tp1240
sVT951020.251
p1241
(I2466
I2
tp1242
sVT951020.250
p1243
(I2465
I3
tp1244
sVT920711.200
p1245
(I1073
I1
tp1246
sVT951020.259
p1247
(I2471
I2
tp1248
sVT951020.258
p1249
(I2470
I2
tp1250
sVT920713.173
p1251
(I1356
I3
tp1252
sVT920713.172
p1253
(I1355
I3
tp1254
sVT920713.171
p1255
(I1354
I2
tp1256
sVT970324.99
p1257
(I2541
I2
tp1258
sVT951016.19
p1259
(I1700
I3
tp1260
sVT920713.174
p1261
(I1357
I3
tp1262
sVT951016.17
p1263
(I1698
I2
tp1264
sVT951016.16
p1265
(I1697
I2
tp1266
sVT951016.15
p1267
(I1696
I2
tp1268
sVT951016.14
p1269
(I1695
I2
tp1270
sVT951016.10
p1271
(I1694
I2
tp1272
sVT970320.54
p1273
(I2538
I2
tp1274
sVT990430.279
p1275
(I935
I3
tp1276
sVT990506.27
p1277
(I168
I1
tp1278
sVT951014.188
p1279
(I1586
I1
tp1280
sVT951014.189
p1281
(I1587
I1
tp1282
sVT951014.186
p1283
(I1585
I2
tp1284
sVT990430.270
p1285
(I931
I1
tp1286
sVT990430.273
p1287
(I933
I1
tp1288
sVT990430.272
p1289
(I932
I1
tp1290
sVT951014.182
p1291
(I1582
I2
tp1292
sVT951014.183
p1293
(I1583
I2
tp1294
sVT951014.180
p1295
(I1581
I1
tp1296
sVT990430.276
p1297
(I934
I2
tp1298
sVT990506.29
p1299
(I170
I1
tp1300
sVT990506.28
p1301
(I169
I1
tp1302
sVT970402.245
p1303
(I2545
I2
tp1304
sVT970327.137
p1305
(I2542
I2
tp1306
sVT920714.19
p1307
(I1368
I2
tp1308
sVT951017.168
p1309
(I1933
I2
tp1310
sVT951017.163
p1311
(I1930
I2
tp1312
sVT920714.11
p1313
(I1361
I1
tp1314
sVT920714.12
p1315
(I1362
I1
tp1316
sVT920714.13
p1317
(I1363
I2
tp1318
sVT920714.14
p1319
(I1364
I2
tp1320
sVT920714.15
p1321
(I1365
I3
tp1322
sVT920714.16
p1323
(I1366
I2
tp1324
sVT920714.17
p1325
(I1367
I2
tp1326
sVT951014.362
p1327
(I1663
I2
tp1328
sVT951014.366
p1329
(I1666
I3
tp1330
sVT951014.367
p1331
(I1667
I3
tp1332
sVT951014.364
p1333
(I1664
I2
tp1334
sVT951014.365
p1335
(I1665
I2
tp1336
sVT951014.368
p1337
(I1668
I2
tp1338
sVT951014.369
p1339
(I1669
I2
tp1340
sVT951016.104
p1341
(I1747
I2
tp1342
sVT951016.105
p1343
(I1748
I1
tp1344
sVT951016.106
p1345
(I1749
I1
tp1346
sVT970429.195
p1347
(I2561
I2
tp1348
sVT971125.152
p1349
(I2708
I2
tp1350
sVT951016.109
p1351
(I1750
I2
tp1352
sVT971030.21
p1353
(I2684
I3
tp1354
sVT971020.182
p1355
(I2676
I2
tp1356
sVT890227.44
p1357
(I2800
I3
tp1358
sVT890404.80
p1359
(I2853
I2
tp1360
sVT890412.52
p1361
(I2865
I3
tp1362
sVT890412.54
p1363
(I2866
I3
tp1364
sVT990503.59
p1365
(I365
I1
tp1366
sVT990503.58
p1367
(I364
I2
tp1368
sVT990503.57
p1369
(I363
I3
tp1370
sVT990503.56
p1371
(I362
I2
tp1372
sVT990503.54
p1373
(I361
I3
tp1374
sVT990503.53
p1375
(I360
I2
tp1376
sVT990503.52
p1377
(I359
I2
tp1378
sVT990503.51
p1379
(I358
I3
tp1380
sVT951020.252
p1381
(I2467
I2
tp1382
sVT890303.214
p1383
(I2805
I2
tp1384
sVT951019.32
p1385
(I2152
I2
tp1386
sVT990504.162
p1387
(I588
I1
tp1388
sVT990504.165
p1389
(I590
I2
tp1390
sVT990504.164
p1391
(I589
I2
tp1392
sVT990504.167
p1393
(I592
I2
tp1394
sVT990504.166
p1395
(I591
I2
tp1396
sVT990504.169
p1397
(I593
I1
tp1398
sVT990505.136
p1399
(I722
I1
tp1400
sVT990505.135
p1401
(I721
I3
tp1402
sVT990505.134
p1403
(I720
I2
tp1404
sVT990505.133
p1405
(I719
I2
tp1406
sVT990505.132
p1407
(I718
I2
tp1408
sVT990505.130
p1409
(I717
I1
tp1410
sVT990505.139
p1411
(I724
I2
tp1412
sVT990505.138
p1413
(I723
I2
tp1414
sVT970102.201
p1415
(I2497
I2
tp1416
sVT890102.38
p1417
(I2729
I2
tp1418
sVT970301.231
p1419
(I2526
I2
tp1420
sVT970517.318
p1421
(I2575
I2
tp1422
sVT951016.18
p1423
(I1699
I2
tp1424
sVT951018.142
p1425
(I2048
I2
tp1426
sVT951018.143
p1427
(I2049
I3
tp1428
sVT890310.236
p1429
(I2813
I2
tp1430
sVT951018.19
p1431
(I2003
I2
tp1432
sVT951018.18
p1433
(I2002
I1
tp1434
sVT951018.13
p1435
(I1999
I2
tp1436
sVT951018.17
p1437
(I2001
I2
tp1438
sVT951018.16
p1439
(I2000
I2
tp1440
sVT990506.163
p1441
(I267
I1
tp1442
sVT990506.162
p1443
(I266
I2
tp1444
sVT990506.161
p1445
(I265
I1
tp1446
sVT990506.160
p1447
(I264
I1
tp1448
sVT990506.167
p1449
(I271
I2
tp1450
sVT990506.166
p1451
(I270
I1
tp1452
sVT990506.165
p1453
(I269
I2
tp1454
sVT990506.164
p1455
(I268
I2
tp1456
sVT990506.168
p1457
(I272
I2
tp1458
sVT970106.84
p1459
(I2498
I2
tp1460
sVT990507.62
p1461
(I49
I2
tp1462
sVT890111.60
p1463
(I2738
I2
tp1464
sVT890113.173
p1465
(I2740
I2
tp1466
sVT990507.63
p1467
(I50
I2
tp1468
sVT990507.60
p1469
(I47
I2
tp1470
sVT990504.67
p1471
(I515
I1
tp1472
sVT990504.66
p1473
(I514
I2
tp1474
sVT990504.65
p1475
(I513
I3
tp1476
sVT990504.64
p1477
(I512
I3
tp1478
sVT951019.271
p1479
(I2302
I2
tp1480
sVT951019.270
p1481
(I2301
I2
tp1482
sVT951019.273
p1483
(I2304
I1
tp1484
sVT990504.60
p1485
(I511
I2
tp1486
sVT990504.183
p1487
(I605
I2
tp1488
sVT990504.182
p1489
(I604
I1
tp1490
sVT990504.181
p1491
(I603
I2
tp1492
sVT990504.180
p1493
(I602
I1
tp1494
sVT990504.187
p1495
(I608
I2
tp1496
sVT990504.186
p1497
(I607
I1
tp1498
sVT990504.69
p1499
(I516
I1
tp1500
sVT890331.189
p1501
(I2844
I3
tp1502
sVT971205.11
p1503
(I2711
I2
tp1504
sVT990504.89
p1505
(I534
I2
tp1506
sVT990504.81
p1507
(I527
I3
tp1508
sVT990504.83
p1509
(I529
I1
tp1510
sVT990504.82
p1511
(I528
I1
tp1512
sVT990504.85
p1513
(I531
I2
tp1514
sVT990504.84
p1515
(I530
I1
tp1516
sVT990504.87
p1517
(I533
I2
tp1518
sVT990504.86
p1519
(I532
I1
tp1520
sVT890404.30
p1521
(I2850
I2
tp1522
sVT951019.280
p1523
(I2308
I2
tp1524
sVT890303.24
p1525
(I2804
I3
tp1526
sVT951019.189
p1527
(I2246
I1
tp1528
sVT951019.187
p1529
(I2245
I2
tp1530
sVT951019.186
p1531
(I2244
I2
tp1532
sVT951019.185
p1533
(I2243
I1
tp1534
sVT951019.184
p1535
(I2242
I1
tp1536
sVT951019.183
p1537
(I2241
I1
tp1538
sVT951019.181
p1539
(I2240
I2
tp1540
sVT951019.180
p1541
(I2239
I2
tp1542
sVT990505.21
p1543
(I637
I2
tp1544
sVT990505.22
p1545
(I638
I3
tp1546
sVT990505.23
p1547
(I639
I1
tp1548
sVT990505.24
p1549
(I640
I2
tp1550
sVT990505.27
p1551
(I641
I3
tp1552
sVT990505.28
p1553
(I642
I2
tp1554
sVT990505.29
p1555
(I643
I2
tp1556
sVT970402.117
p1557
(I2543
I3
tp1558
sVT990506.82
p1559
(I205
I1
tp1560
sVT990506.81
p1561
(I204
I1
tp1562
sVT990506.80
p1563
(I203
I1
tp1564
sVT990506.87
p1565
(I207
I2
tp1566
sVT951017.193
p1567
(I1942
I2
tp1568
sVT951017.190
p1569
(I1939
I2
tp1570
sVT990506.84
p1571
(I206
I3
tp1572
sVT890217.70
p1573
(I2784
I3
tp1574
sVT920713.50
p1575
(I1276
I3
tp1576
sVT990506.89
p1577
(I209
I1
tp1578
sVT990506.88
p1579
(I208
I2
tp1580
sVT920713.55
p1581
(I1280
I3
tp1582
sVT920713.54
p1583
(I1279
I3
tp1584
sVT920713.57
p1585
(I1282
I3
tp1586
sVT920713.56
p1587
(I1281
I1
tp1588
sVT951017.9
p1589
(I1849
I2
tp1590
sVT920711.48
p1591
(I981
I1
tp1592
sVT970224.138
p1593
(I2525
I2
tp1594
sVT920711.44
p1595
(I978
I3
tp1596
sVT920711.185
p1597
(I1065
I3
tp1598
sVT920711.46
p1599
(I979
I3
tp1600
sVT920711.47
p1601
(I980
I1
tp1602
sVT920711.40
p1603
(I975
I1
tp1604
sVT920711.41
p1605
(I976
I2
tp1606
sVT920711.182
p1607
(I1063
I2
tp1608
sVT920711.43
p1609
(I977
I1
tp1610
sVT951020.71
p1611
(I2367
I2
tp1612
sVT951020.72
p1613
(I2368
I2
tp1614
sVT951016.209
p1615
(I1801
I2
tp1616
sVT920711.214
p1617
(I1086
I3
tp1618
sVT920711.215
p1619
(I1087
I3
tp1620
sVT920711.210
p1621
(I1082
I2
tp1622
sVT920711.211
p1623
(I1083
I3
tp1624
sVT920711.212
p1625
(I1084
I2
tp1626
sVT920711.213
p1627
(I1085
I1
tp1628
sVT951016.207
p1629
(I1799
I3
tp1630
sVT890407.163
p1631
(I2858
I2
tp1632
sVT951016.206
p1633
(I1798
I3
tp1634
sVT990507.104
p1635
(I68
I2
tp1636
sVT990507.105
p1637
(I69
I1
tp1638
sVT990507.106
p1639
(I70
I1
tp1640
sVT990507.101
p1641
(I65
I1
tp1642
sVT990507.102
p1643
(I66
I1
tp1644
sVT990507.103
p1645
(I67
I1
tp1646
sVT951020.92
p1647
(I2376
I2
tp1648
sVT951020.96
p1649
(I2377
I2
tp1650
sVT951020.97
p1651
(I2378
I2
tp1652
sVT951017.7
p1653
(I1847
I3
tp1654
sVT951020.244
p1655
(I2462
I1
tp1656
sVT970421.158
p1657
(I2558
I2
tp1658
sVT951020.246
p1659
(I2463
I1
tp1660
sVT951020.247
p1661
(I2464
I3
tp1662
sVT951020.240
p1663
(I2459
I1
tp1664
sVT951020.241
p1665
(I2460
I1
tp1666
sVT951019.36
p1667
(I2155
I2
tp1668
sVT920713.160
p1669
(I1349
I3
tp1670
sVT920713.161
p1671
(I1350
I1
tp1672
sVT920713.162
p1673
(I1351
I3
tp1674
sVT920713.163
p1675
(I1352
I2
tp1676
sVT920713.169
p1677
(I1353
I2
tp1678
sVT890118.77
p1679
(I2746
I3
tp1680
sVT951014.173
p1681
(I1577
I2
tp1682
sVT951014.171
p1683
(I1576
I1
tp1684
sVT951014.170
p1685
(I1575
I3
tp1686
sVT951014.177
p1687
(I1579
I2
tp1688
sVT951014.176
p1689
(I1578
I2
tp1690
sVT990430.268
p1691
(I929
I2
tp1692
sVT990430.269
p1693
(I930
I1
tp1694
sVT990430.266
p1695
(I927
I3
tp1696
sVT990430.267
p1697
(I928
I3
tp1698
sVT990430.264
p1699
(I926
I1
tp1700
sVT951014.178
p1701
(I1580
I1
tp1702
sVT990430.262
p1703
(I924
I1
tp1704
sVT990430.263
p1705
(I925
I1
tp1706
sVT990430.260
p1707
(I922
I2
tp1708
sVT990430.261
p1709
(I923
I2
tp1710
sVT970626.211
p1711
(I2602
I3
tp1712
sVT951019.38
p1713
(I2156
I2
tp1714
sVT970918.200
p1715
(I2656
I2
tp1716
sVT951018.212
p1717
(I2080
I1
tp1718
sVT951017.175
p1719
(I1934
I2
tp1720
sVT951014.317
p1721
(I1633
I2
tp1722
sVT951016.138
p1723
(I1763
I1
tp1724
sVT951014.315
p1725
(I1632
I2
tp1726
sVT951014.313
p1727
(I1631
I3
tp1728
sVT951014.312
p1729
(I1630
I3
tp1730
sVT951014.311
p1731
(I1629
I3
tp1732
sVT951016.131
p1733
(I1760
I2
tp1734
sVT951014.319
p1735
(I1635
I2
tp1736
sVT951014.318
p1737
(I1634
I2
tp1738
sVT990503.113
p1739
(I401
I3
tp1740
sVT990503.111
p1741
(I400
I2
tp1742
sVT990503.110
p1743
(I399
I2
tp1744
sVT990503.116
p1745
(I404
I3
tp1746
sVT990503.115
p1747
(I403
I1
tp1748
sVT990503.114
p1749
(I402
I1
tp1750
sVT990503.119
p1751
(I405
I2
tp1752
sVT970730.80
p1753
(I2626
I2
tp1754
sVT970829.79
p1755
(I2650
I3
tp1756
sVT890425.104
p1757
(I2886
I3
tp1758
sVT951017.161
p1759
(I1929
I1
tp1760
sVT951014.229
p1761
(I1608
I2
tp1762
sVT970314.55
p1763
(I2536
I2
tp1764
sVT951014.223
p1765
(I1604
I2
tp1766
sVT951017.167
p1767
(I1932
I2
tp1768
sVT951014.220
p1769
(I1603
I2
tp1770
sVT951014.227
p1771
(I1607
I2
tp1772
sVT951014.226
p1773
(I1606
I2
tp1774
sVT951014.224
p1775
(I1605
I3
tp1776
sVT951019.9
p1777
(I2139
I2
tp1778
sVT970715.50
p1779
(I2620
I2
tp1780
sVT970602.89
p1781
(I2580
I2
tp1782
sVT990504.219
p1783
(I633
I1
tp1784
sVT990504.218
p1785
(I632
I1
tp1786
sVT890510.1
p1787
(I2906
I2
tp1788
sVT990504.213
p1789
(I628
I1
tp1790
sVT990504.212
p1791
(I627
I2
tp1792
sVT990504.211
p1793
(I626
I3
tp1794
sVT890511.38
p1795
(I2907
I1
tp1796
sVT990504.217
p1797
(I631
I1
tp1798
sVT990504.215
p1799
(I630
I3
tp1800
sVT990504.214
p1801
(I629
I2
tp1802
sVT951016.69
p1803
(I1731
I1
tp1804
sVT951019.272
p1805
(I2303
I2
tp1806
sVT951014.91
p1807
(I1551
I2
tp1808
sVT951014.90
p1809
(I1550
I2
tp1810
sVT951019.27
p1811
(I2150
I2
tp1812
sVT990504.177
p1813
(I599
I1
tp1814
sVT990504.174
p1815
(I597
I2
tp1816
sVT990504.175
p1817
(I598
I3
tp1818
sVT990504.172
p1819
(I596
I1
tp1820
sVT951019.22
p1821
(I2147
I2
tp1822
sVT990504.170
p1823
(I594
I1
tp1824
sVT990504.171
p1825
(I595
I1
tp1826
sVT990504.178
p1827
(I600
I2
tp1828
sVT990504.179
p1829
(I601
I1
tp1830
sVT990505.124
p1831
(I713
I2
tp1832
sVT990505.125
p1833
(I714
I2
tp1834
sVT990505.120
p1835
(I709
I1
tp1836
sVT990506.56
p1837
(I186
I1
tp1838
sVT990505.122
p1839
(I711
I2
tp1840
sVT990505.123
p1841
(I712
I2
tp1842
sVT990505.128
p1843
(I715
I3
tp1844
sVT990505.129
p1845
(I716
I2
tp1846
sVT890508.91
p1847
(I2903
I3
tp1848
sVT990506.59
p1849
(I187
I1
tp1850
sVT970113.185
p1851
(I2503
I2
tp1852
sVT990430.5
p1853
(I773
I1
tp1854
sVT990430.9
p1855
(I774
I3
tp1856
sVT970418.250
p1857
(I2557
I2
tp1858
sVT951018.209
p1859
(I2078
I2
tp1860
sVT951018.208
p1861
(I2077
I2
tp1862
sVT951018.24
p1863
(I2007
I1
tp1864
sVT951018.25
p1865
(I2008
I2
tp1866
sVT951018.26
p1867
(I2009
I2
tp1868
sVT951018.21
p1869
(I2004
I2
tp1870
sVT951018.22
p1871
(I2005
I2
tp1872
sVT951018.23
p1873
(I2006
I2
tp1874
sVT990506.170
p1875
(I273
I2
tp1876
sVT990506.171
p1877
(I274
I3
tp1878
sVT951020.171
p1879
(I2407
I2
tp1880
sVT951019.42
p1881
(I2158
I2
tp1882
sVT990506.174
p1883
(I275
I1
tp1884
sVT971021.21
p1885
(I2677
I3
tp1886
sVT890120.107
p1887
(I2749
I2
tp1888
sVT951014.15
p1889
(I1513
I2
tp1890
sVT951014.14
p1891
(I1512
I2
tp1892
sVT951014.17
p1893
(I1515
I1
tp1894
sVT951014.16
p1895
(I1514
I2
tp1896
sVT951014.13
p1897
(I1511
I2
tp1898
sVT951014.12
p1899
(I1510
I2
tp1900
sVT951019.262
p1901
(I2294
I2
tp1902
sVT951019.263
p1903
(I2295
I2
tp1904
sVT951019.46
p1905
(I2162
I2
tp1906
sVT951017.53
p1907
(I1875
I2
tp1908
sVT951014.18
p1909
(I1516
I2
tp1910
sVT951019.179
p1911
(I2238
I2
tp1912
sVT951019.265
p1913
(I2297
I2
tp1914
sVT990504.198
p1915
(I616
I1
tp1916
sVT990504.199
p1917
(I617
I1
tp1918
sVT890216.113
p1919
(I2781
I1
tp1920
sVT990504.190
p1921
(I610
I2
tp1922
sVT990504.191
p1923
(I611
I1
tp1924
sVT990504.193
p1925
(I612
I1
tp1926
sVT990504.195
p1927
(I613
I2
tp1928
sVT990504.196
p1929
(I614
I1
tp1930
sVT990504.197
p1931
(I615
I2
tp1932
sVT970301.377
p1933
(I2527
I2
tp1934
sVT920710.76
p1935
(I1142
I3
tp1936
sVT920710.77
p1937
(I1143
I1
tp1938
sVT970507.153
p1939
(I2569
I3
tp1940
sVT920710.75
p1941
(I1141
I3
tp1942
sVT920710.71
p1943
(I1140
I1
tp1944
sVT920710.78
p1945
(I1144
I1
tp1946
sVT920710.79
p1947
(I1145
I1
tp1948
sVT951019.199
p1949
(I2253
I3
tp1950
sVT951019.194
p1951
(I2250
I1
tp1952
sVT951019.73
p1953
(I2182
I2
tp1954
sVT951019.196
p1955
(I2252
I2
tp1956
sVT951019.190
p1957
(I2247
I1
tp1958
sVT951019.191
p1959
(I2248
I1
tp1960
sVT951019.192
p1961
(I2249
I1
tp1962
sVT990505.37
p1963
(I649
I1
tp1964
sVT990505.36
p1965
(I648
I1
tp1966
sVT990505.35
p1967
(I647
I1
tp1968
sVT990505.34
p1969
(I646
I1
tp1970
sVT990505.32
p1971
(I645
I2
tp1972
sVT990505.30
p1973
(I644
I3
tp1974
sVT970925.135
p1975
(I2660
I2
tp1976
sVT990505.39
p1977
(I651
I1
tp1978
sVT990505.38
p1979
(I650
I2
tp1980
sVT920713.68
p1981
(I1287
I2
tp1982
sVT920713.67
p1983
(I1286
I3
tp1984
sVT920713.61
p1985
(I1283
I3
tp1986
sVT920713.62
p1987
(I1284
I3
tp1988
sVT920713.63
p1989
(I1285
I3
tp1990
sVT920711.52
p1991
(I984
I3
tp1992
sVT920711.51
p1993
(I983
I3
tp1994
sVT920711.50
p1995
(I982
I3
tp1996
sVT920711.57
p1997
(I988
I1
tp1998
sVT920711.56
p1999
(I987
I3
tp2000
sVT920711.55
p2001
(I986
I1
tp2002
sVT920711.54
p2003
(I985
I2
tp2004
sVT920711.59
p2005
(I990
I1
tp2006
sVT920711.58
p2007
(I989
I3
tp2008
sVT951017.94
p2009
(I1902
I1
tp2010
sVT951020.66
p2011
(I2366
I2
tp2012
sVT951020.64
p2013
(I2365
I2
tp2014
sVT951020.63
p2015
(I2364
I2
tp2016
sVT951017.92
p2017
(I1900
I3
tp2018
sVT951017.93
p2019
(I1901
I2
tp2020
sVT951017.98
p2021
(I1903
I2
tp2022
sVT951017.99
p2023
(I1904
I1
tp2024
sVT990507.131
p2025
(I84
I1
tp2026
sVT990507.130
p2027
(I83
I1
tp2028
sVT990507.133
p2029
(I86
I1
tp2030
sVT990507.132
p2031
(I85
I2
tp2032
sVT990507.135
p2033
(I88
I1
tp2034
sVT990507.134
p2035
(I87
I2
tp2036
sVT990507.137
p2037
(I90
I2
tp2038
sVT990507.136
p2039
(I89
I1
tp2040
sVT990507.139
p2041
(I91
I1
tp2042
sVT890419.61
p2043
(I2877
I3
tp2044
sVT951020.115
p2045
(I2382
I1
tp2046
sVT951020.89
p2047
(I2375
I2
tp2048
sVT951019.284
p2049
(I2311
I2
tp2050
sVT951019.285
p2051
(I2312
I2
tp2052
sVT951020.81
p2053
(I2371
I2
tp2054
sVT951020.270
p2055
(I2478
I2
tp2056
sVT951020.83
p2057
(I2373
I2
tp2058
sVT951020.82
p2059
(I2372
I1
tp2060
sVT951020.275
p2061
(I2482
I2
tp2062
sVT951019.286
p2063
(I2313
I1
tp2064
sVT951020.277
p2065
(I2483
I3
tp2066
sVT890309.55
p2067
(I2811
I3
tp2068
sVT951020.119
p2069
(I2383
I3
tp2070
sVT951018.201
p2071
(I2071
I3
tp2072
sVT970927.303
p2073
(I2664
I3
tp2074
sVT920713.155
p2075
(I1344
I1
tp2076
sVT920713.154
p2077
(I1343
I2
tp2078
sVT920713.157
p2079
(I1346
I2
tp2080
sVT920713.156
p2081
(I1345
I3
tp2082
sVT920713.150
p2083
(I1341
I2
tp2084
sVT920713.152
p2085
(I1342
I2
tp2086
sVT951018.34
p2087
(I2010
I2
tp2088
sVT920713.159
p2089
(I1348
I2
tp2090
sVT920713.158
p2091
(I1347
I3
tp2092
sVT970724.143
p2093
(I2623
I2
tp2094
sVT990430.293
p2095
(I947
I1
tp2096
sVT990430.292
p2097
(I946
I2
tp2098
sVT990430.291
p2099
(I945
I2
tp2100
sVT990430.290
p2101
(I944
I1
tp2102
sVT951014.164
p2103
(I1571
I1
tp2104
sVT970625.240
p2105
(I2600
I2
tp2106
sVT951014.166
p2107
(I1572
I3
tp2108
sVT951014.167
p2109
(I1573
I3
tp2110
sVT951014.169
p2111
(I1574
I1
tp2112
sVT951020.29
p2113
(I2342
I3
tp2114
sVT951019.289
p2115
(I2315
I2
tp2116
sVT990430.103
p2117
(I812
I1
tp2118
sVT990430.101
p2119
(I811
I3
tp2120
sVT990430.100
p2121
(I810
I2
tp2122
sVT990430.104
p2123
(I813
I3
tp2124
sVT990430.109
p2125
(I815
I1
tp2126
sVT990430.108
p2127
(I814
I2
tp2128
sVT951014.21
p2129
(I1517
I2
tp2130
sVT951017.144
p2131
(I1923
I3
tp2132
sVT951017.143
p2133
(I1922
I1
tp2134
sVT951017.142
p2135
(I1921
I3
tp2136
sVT951017.50
p2137
(I1873
I1
tp2138
sVT920711.159
p2139
(I1050
I3
tp2140
sVT990430.79
p2141
(I794
I1
tp2142
sVT920711.153
p2143
(I1045
I2
tp2144
sVT920711.152
p2145
(I1044
I2
tp2146
sVT920711.157
p2147
(I1049
I1
tp2148
sVT920711.156
p2149
(I1048
I1
tp2150
sVT920711.155
p2151
(I1047
I0
tp2152
sVT920711.154
p2153
(I1046
I1
tp2154
sVT951014.304
p2155
(I1624
I2
tp2156
sVT951014.306
p2157
(I1625
I3
tp2158
sVT951014.307
p2159
(I1626
I2
tp2160
sVT951017.54
p2161
(I1876
I2
tp2162
sVT951016.125
p2163
(I1759
I2
tp2164
sVT951014.308
p2165
(I1627
I3
tp2166
sVT951014.309
p2167
(I1628
I2
tp2168
sVT951016.120
p2169
(I1758
I1
tp2170
sVT951017.55
p2171
(I1877
I2
tp2172
sVT990503.101
p2173
(I391
I3
tp2174
sVT990503.102
p2175
(I392
I2
tp2176
sVT990503.103
p2177
(I393
I2
tp2178
sVT990503.105
p2179
(I394
I2
tp2180
sVT990503.106
p2181
(I395
I1
tp2182
sVT990503.107
p2183
(I396
I2
tp2184
sVT990503.108
p2185
(I397
I2
tp2186
sVT990503.109
p2187
(I398
I1
tp2188
sVT951014.24
p2189
(I1520
I2
tp2190
sVT890420.61
p2191
(I2880
I3
tp2192
sVT951014.230
p2193
(I1609
I2
tp2194
sVT951014.231
p2195
(I1610
I2
tp2196
sVT951019.114
p2197
(I2199
I2
tp2198
sVT990505.205
p2199
(I766
I1
tp2200
sVT990505.204
p2201
(I765
I2
tp2202
sVT990505.207
p2203
(I767
I3
tp2204
sVT890325.31
p2205
(I2831
I1
tp2206
sVT990505.201
p2207
(I762
I2
tp2208
sVT990505.203
p2209
(I764
I2
tp2210
sVT990505.202
p2211
(I763
I2
tp2212
sVT990505.209
p2213
(I769
I2
tp2214
sVT990505.208
p2215
(I768
I3
tp2216
sVT990504.208
p2217
(I624
I2
tp2218
sVT990504.209
p2219
(I625
I1
tp2220
sVT951014.184
p2221
(I1584
I2
tp2222
sVT990504.201
p2223
(I618
I3
tp2224
sVT990504.202
p2225
(I619
I2
tp2226
sVT990504.203
p2227
(I620
I2
tp2228
sVT990504.205
p2229
(I621
I2
tp2230
sVT990504.206
p2231
(I622
I2
tp2232
sVT990504.207
p2233
(I623
I2
tp2234
sVT890224.87
p2235
(I2795
I3
tp2236
sVT890209.180
p2237
(I2771
I2
tp2238
sVT990505.119
p2239
(I708
I1
tp2240
sVT990505.118
p2241
(I707
I1
tp2242
sVT990505.111
p2243
(I702
I2
tp2244
sVT990505.110
p2245
(I701
I1
tp2246
sVT990505.112
p2247
(I703
I2
tp2248
sVT990505.115
p2249
(I705
I2
tp2250
sVT990505.114
p2251
(I704
I1
tp2252
sVT990505.116
p2253
(I706
I1
tp2254
sVT890505.102
p2255
(I2898
I2
tp2256
sVT951017.56
p2257
(I1878
I2
tp2258
sVT890328.141
p2259
(I2836
I2
tp2260
sVT951020.162
p2261
(I2401
I2
tp2262
sVT890403.116
p2263
(I2846
I2
tp2264
sVT890206.76
p2265
(I2767
I2
tp2266
sVT970320.121
p2267
(I2539
I3
tp2268
sVT951019.160
p2269
(I2225
I2
tp2270
sVT990505.51
p2271
(I660
I1
tp2272
sVT951018.37
p2273
(I2012
I2
tp2274
sVT951018.36
p2275
(I2011
I2
tp2276
sVT920710.153
p2277
(I1192
I2
tp2278
sVT970603.178
p2279
(I2583
I2
tp2280
sVT951018.39
p2281
(I2013
I3
tp2282
sVT970516.176
p2283
(I2573
I2
tp2284
sVT990506.144
p2285
(I250
I1
tp2286
sVT990506.147
p2287
(I252
I2
tp2288
sVT990506.146
p2289
(I251
I3
tp2290
sVT990506.141
p2291
(I247
I2
tp2292
sVT990506.143
p2293
(I249
I2
tp2294
sVT990506.142
p2295
(I248
I2
tp2296
sVT920714.122
p2297
(I1445
I3
tp2298
sVT951014.22
p2299
(I1518
I2
tp2300
sVT951014.23
p2301
(I1519
I0
tp2302
sVT990506.149
p2303
(I254
I2
tp2304
sVT990506.148
p2305
(I253
I2
tp2306
sVT951014.27
p2307
(I1521
I2
tp2308
sVT970919.82
p2309
(I2658
I3
tp2310
sVT951019.219
p2311
(I2267
I3
tp2312
sVT951019.218
p2313
(I2266
I2
tp2314
sVT951019.217
p2315
(I2265
I2
tp2316
sVT951019.216
p2317
(I2264
I2
tp2318
sVT951019.214
p2319
(I2263
I2
tp2320
sVT951019.211
p2321
(I2262
I3
tp2322
sVT951014.396
p2323
(I1690
I3
tp2324
sVT970717.119
p2325
(I2621
I3
tp2326
sVT971205.227
p2327
(I2712
I2
tp2328
sVT971206.58
p2329
(I2714
I1
tp2330
sVT970409.151
p2331
(I2549
I1
tp2332
sVT970409.155
p2333
(I2550
I2
tp2334
sVT920710.65
p2335
(I1135
I2
tp2336
sVT920710.64
p2337
(I1134
I3
tp2338
sVT920710.67
p2339
(I1137
I3
tp2340
sVT920710.66
p2341
(I1136
I2
tp2342
sVT920710.61
p2343
(I1131
I3
tp2344
sVT920710.60
p2345
(I1130
I1
tp2346
sVT920710.63
p2347
(I1133
I3
tp2348
sVT920710.62
p2349
(I1132
I3
tp2350
sVT920710.69
p2351
(I1139
I2
tp2352
sVT920710.68
p2353
(I1138
I3
tp2354
sVT970926.214
p2355
(I2663
I3
tp2356
sVT890216.27
p2357
(I2780
I2
tp2358
sVT890506.99
p2359
(I2901
I3
tp2360
sVT920713.73
p2361
(I1290
I2
tp2362
sVT920713.72
p2363
(I1289
I2
tp2364
sVT951019.149
p2365
(I2220
I1
tp2366
sVT920713.70
p2367
(I1288
I3
tp2368
sVT920713.77
p2369
(I1294
I1
tp2370
sVT920713.76
p2371
(I1293
I1
tp2372
sVT920713.75
p2373
(I1292
I2
tp2374
sVT920713.74
p2375
(I1291
I2
tp2376
sVT951019.143
p2377
(I2215
I2
tp2378
sVT951019.141
p2379
(I2214
I1
tp2380
sVT951019.147
p2381
(I2218
I1
tp2382
sVT951019.146
p2383
(I2217
I0
tp2384
sVT951019.145
p2385
(I2216
I1
tp2386
sVT920711.26
p2387
(I965
I2
tp2388
sVT920711.27
p2389
(I966
I2
tp2390
sVT920711.24
p2391
(I963
I2
tp2392
sVT920711.25
p2393
(I964
I2
tp2394
sVT920711.20
p2395
(I961
I2
tp2396
sVT920711.21
p2397
(I962
I3
tp2398
sVT951017.83
p2399
(I1897
I2
tp2400
sVT951017.82
p2401
(I1896
I2
tp2402
sVT951017.81
p2403
(I1895
I2
tp2404
sVT951017.87
p2405
(I1899
I3
tp2406
sVT920711.28
p2407
(I967
I2
tp2408
sVT920711.29
p2409
(I968
I2
tp2410
sVT890329.90
p2411
(I2838
I1
tp2412
sVT990507.89
p2413
(I57
I1
tp2414
sVT970206.78
p2415
(I2512
I2
tp2416
sVT990507.124
p2417
(I79
I2
tp2418
sVT990507.125
p2419
(I80
I1
tp2420
sVT990507.128
p2421
(I81
I1
tp2422
sVT990507.129
p2423
(I82
I1
tp2424
sVT990504.90
p2425
(I535
I1
tp2426
sVT970422.37
p2427
(I2559
I2
tp2428
sVT951020.269
p2429
(I2477
I2
tp2430
sVT951020.266
p2431
(I2476
I2
tp2432
sVT951020.264
p2433
(I2474
I2
tp2434
sVT951020.265
p2435
(I2475
I2
tp2436
sVT951020.263
p2437
(I2473
I2
tp2438
sVT951020.260
p2439
(I2472
I2
tp2440
sVT920713.149
p2441
(I1340
I2
tp2442
sVT920713.143
p2443
(I1335
I2
tp2444
sVT920713.146
p2445
(I1338
I3
tp2446
sVT920713.147
p2447
(I1339
I3
tp2448
sVT920713.144
p2449
(I1336
I1
tp2450
sVT920713.145
p2451
(I1337
I3
tp2452
sVT951016.39
p2453
(I1711
I2
tp2454
sVT951020.60
p2455
(I2363
I2
tp2456
sVT951019.33
p2457
(I2153
I0
tp2458
sVT970522.187
p2459
(I2577
I2
tp2460
sVT951019.35
p2461
(I2154
I2
tp2462
sVT990430.280
p2463
(I936
I3
tp2464
sVT990430.281
p2465
(I937
I2
tp2466
sVT990430.282
p2467
(I938
I2
tp2468
sVT990430.283
p2469
(I939
I3
tp2470
sVT990430.284
p2471
(I940
I2
tp2472
sVT951014.150
p2473
(I1566
I3
tp2474
sVT990430.286
p2475
(I941
I2
tp2476
sVT990430.287
p2477
(I942
I1
tp2478
sVT990430.289
p2479
(I943
I2
tp2480
sVT990430.110
p2481
(I816
I1
tp2482
sVT990430.111
p2483
(I817
I1
tp2484
sVT990430.113
p2485
(I818
I3
tp2486
sVT990430.114
p2487
(I819
I1
tp2488
sVT990430.115
p2489
(I820
I1
tp2490
sVT990430.116
p2491
(I821
I1
tp2492
sVT990430.118
p2493
(I822
I1
tp2494
sVT990430.119
p2495
(I823
I1
tp2496
sVT951017.151
p2497
(I1924
I1
tp2498
sVT951017.156
p2499
(I1926
I1
tp2500
sVT951017.157
p2501
(I1927
I2
tp2502
sVT951017.155
p2503
(I1925
I1
tp2504
sVT951017.158
p2505
(I1928
I2
tp2506
sVT920711.148
p2507
(I1043
I3
tp2508
sVT970429.173
p2509
(I2560
I2
tp2510
sVT920711.145
p2511
(I1041
I2
tp2512
sVT920711.147
p2513
(I1042
I2
tp2514
sVT970709.60
p2515
(I2611
I1
tp2516
sVT920714.2
p2517
(I1359
I2
tp2518
sVT920714.3
p2519
(I1360
I2
tp2520
sVT920714.1
p2521
(I1358
I2
tp2522
sVT990503.135
p2523
(I420
I1
tp2524
sVT990503.134
p2525
(I419
I1
tp2526
sVT990503.137
p2527
(I422
I2
tp2528
sVT990503.136
p2529
(I421
I1
tp2530
sVT990503.131
p2531
(I416
I2
tp2532
sVT990503.130
p2533
(I415
I1
tp2534
sVT990503.133
p2535
(I418
I1
tp2536
sVT990503.132
p2537
(I417
I2
tp2538
sVT951016.249
p2539
(I1832
I1
tp2540
sVT951016.248
p2541
(I1831
I1
tp2542
sVT990503.138
p2543
(I423
I2
tp2544
sVT890201.31
p2545
(I2759
I3
tp2546
sVT920710.8
p2547
(I1093
I1
tp2548
sVT920710.9
p2549
(I1094
I2
tp2550
sVT920710.2
p2551
(I1089
I2
tp2552
sVT920710.1
p2553
(I1088
I2
tp2554
sVT920710.6
p2555
(I1091
I2
tp2556
sVT920710.7
p2557
(I1092
I2
tp2558
sVT920710.5
p2559
(I1090
I2
tp2560
sVT890102.84
p2561
(I2731
I3
tp2562
sVT890102.82
p2563
(I2730
I3
tp2564
sVT890420.52
p2565
(I2879
I3
tp2566
sVT951014.208
p2567
(I1597
I2
tp2568
sVT951020.160
p2569
(I2400
I2
tp2570
sVT990505.212
p2571
(I772
I1
tp2572
sVT890426.92
p2573
(I2890
I2
tp2574
sVT990505.210
p2575
(I770
I2
tp2576
sVT990505.211
p2577
(I771
I1
tp2578
sVT951017.199
p2579
(I1946
I2
tp2580
sVT951020.163
p2581
(I2402
I2
tp2582
sVT951019.148
p2583
(I2219
I1
tp2584
sVT951020.165
p2585
(I2404
I2
tp2586
sVT990505.62
p2587
(I666
I1
tp2588
sVT970305.202
p2589
(I2529
I2
tp2590
sVT951020.164
p2591
(I2403
I2
tp2592
sVT990503.84
p2593
(I380
I2
tp2594
sVT990503.85
p2595
(I381
I2
tp2596
sVT990503.87
p2597
(I382
I2
tp2598
sVT990503.80
p2599
(I377
I1
tp2600
sVT990503.82
p2601
(I378
I1
tp2602
sVT990503.83
p2603
(I379
I2
tp2604
sVT951020.166
p2605
(I2405
I2
tp2606
sVT990503.88
p2607
(I383
I2
tp2608
sVT990503.89
p2609
(I384
I2
tp2610
sVT951014.338
p2611
(I1646
I2
tp2612
sVT890220.45
p2613
(I2789
I3
tp2614
sVT951014.331
p2615
(I1639
I2
tp2616
sVT951014.330
p2617
(I1638
I2
tp2618
sVT951014.333
p2619
(I1641
I1
tp2620
sVT951014.332
p2621
(I1640
I3
tp2622
sVT951014.335
p2623
(I1643
I1
tp2624
sVT951014.334
p2625
(I1642
I1
tp2626
sVT951014.337
p2627
(I1645
I1
tp2628
sVT951014.336
p2629
(I1644
I1
tp2630
sVT971121.107
p2631
(I2704
I2
tp2632
sVT951018.281
p2633
(I2133
I2
tp2634
sVT971212.250
p2635
(I2722
I3
tp2636
sVT951018.283
p2637
(I2135
I1
tp2638
sVT951018.282
p2639
(I2134
I3
tp2640
sVT951018.284
p2641
(I2136
I2
tp2642
sVT990505.108
p2643
(I699
I1
tp2644
sVT990505.109
p2645
(I700
I1
tp2646
sVT990505.106
p2647
(I697
I1
tp2648
sVT990505.107
p2649
(I698
I1
tp2650
sVT990505.104
p2651
(I695
I2
tp2652
sVT990505.105
p2653
(I696
I1
tp2654
sVT990505.102
p2655
(I693
I2
tp2656
sVT990505.103
p2657
(I694
I1
tp2658
sVT990505.100
p2659
(I691
I1
tp2660
sVT990505.101
p2661
(I692
I1
tp2662
sVT890422.55
p2663
(I2884
I3
tp2664
sVT890330.130
p2665
(I2840
I3
tp2666
sVT951016.212
p2667
(I1804
I3
tp2668
sVT890217.175
p2669
(I2785
I3
tp2670
sVT890126.270
p2671
(I2754
I2
tp2672
sVT890102.154
p2673
(I2732
I2
tp2674
sVT970815.222
p2675
(I2635
I2
tp2676
sVT970624.90
p2677
(I2595
I2
tp2678
sVT951018.195
p2679
(I2068
I3
tp2680
sVT890417.7
p2681
(I2873
I3
tp2682
sVT951018.199
p2683
(I2070
I1
tp2684
sVT951018.198
p2685
(I2069
I2
tp2686
sVT890218.89
p2687
(I2787
I1
tp2688
sVT951017.84
p2689
(I1898
I2
tp2690
sVT971120.308
p2691
(I2703
I3
tp2692
sVT890425.226
p2693
(I2887
I2
tp2694
sVT951018.46
p2695
(I2017
I2
tp2696
sVT951018.47
p2697
(I2018
I2
tp2698
sVT990506.158
p2699
(I262
I1
tp2700
sVT990506.159
p2701
(I263
I1
tp2702
sVT951018.42
p2703
(I2014
I2
tp2704
sVT951018.43
p2705
(I2015
I2
tp2706
sVT990506.152
p2707
(I256
I1
tp2708
sVT990506.153
p2709
(I257
I2
tp2710
sVT990506.150
p2711
(I255
I2
tp2712
sVT990506.156
p2713
(I260
I1
tp2714
sVT990506.157
p2715
(I261
I1
tp2716
sVT990506.154
p2717
(I258
I1
tp2718
sVT990506.155
p2719
(I259
I1
tp2720
sVT951014.39
p2721
(I1527
I2
tp2722
sVT951014.38
p2723
(I1526
I2
tp2724
sVT951014.35
p2725
(I1525
I2
tp2726
sVT951014.34
p2727
(I1524
I1
tp2728
sVT970617.162
p2729
(I2592
I2
tp2730
sVT951014.31
p2731
(I1523
I2
tp2732
sVT951014.30
p2733
(I1522
I1
tp2734
sVT970506.178
p2735
(I2568
I3
tp2736
sVT951019.208
p2737
(I2260
I2
tp2738
sVT951019.209
p2739
(I2261
I2
tp2740
sVT920714.175
p2741
(I1468
I2
tp2742
sVT951019.204
p2743
(I2256
I2
tp2744
sVT951019.205
p2745
(I2257
I2
tp2746
sVT951019.206
p2747
(I2258
I2
tp2748
sVT951019.207
p2749
(I2259
I2
tp2750
sVT951019.200
p2751
(I2254
I3
tp2752
sVT951019.201
p2753
(I2255
I2
tp2754
sVT951018.269
p2755
(I2123
I2
tp2756
sVT951018.262
p2757
(I2118
I3
tp2758
sVT951018.261
p2759
(I2117
I2
tp2760
sVT951018.260
p2761
(I2116
I2
tp2762
sVT951018.267
p2763
(I2122
I2
tp2764
sVT951018.266
p2765
(I2121
I1
tp2766
sVT951018.265
p2767
(I2120
I2
tp2768
sVT951018.264
p2769
(I2119
I3
tp2770
sVT920710.58
p2771
(I1128
I1
tp2772
sVT920710.59
p2773
(I1129
I1
tp2774
sVT920710.51
p2775
(I1123
I1
tp2776
sVT920710.52
p2777
(I1124
I2
tp2778
sVT890203.121
p2779
(I2764
I2
tp2780
sVT920710.55
p2781
(I1125
I2
tp2782
sVT920710.56
p2783
(I1126
I1
tp2784
sVT920710.57
p2785
(I1127
I1
tp2786
sVT951014.264
p2787
(I1613
I3
tp2788
sVT890325.64
p2789
(I2833
I1
tp2790
sVT970111.175
p2791
(I2502
I3
tp2792
sVT970820.187
p2793
(I2642
I2
tp2794
sVT951019.158
p2795
(I2224
I3
tp2796
sVT970409.275
p2797
(I2552
I1
tp2798
sVT971010.131
p2799
(I2673
I3
tp2800
sVT951019.152
p2801
(I2221
I2
tp2802
sVT951019.154
p2803
(I2222
I2
tp2804
sVT951019.157
p2805
(I2223
I3
tp2806
sVT990506.2
p2807
(I150
I2
tp2808
sVT990506.3
p2809
(I151
I2
tp2810
sVT920711.37
p2811
(I973
I2
tp2812
sVT890410.85
p2813
(I2860
I3
tp2814
sVT920711.31
p2815
(I970
I2
tp2816
sVT920711.30
p2817
(I969
I3
tp2818
sVT920711.33
p2819
(I972
I2
tp2820
sVT920711.32
p2821
(I971
I3
tp2822
sVT990506.8
p2823
(I155
I1
tp2824
sVT990506.9
p2825
(I156
I1
tp2826
sVT920711.39
p2827
(I974
I2
tp2828
sVT990504.1
p2829
(I479
I1
tp2830
sVT971101.93
p2831
(I2687
I2
tp2832
sVT890407.136
p2833
(I2857
I2
tp2834
sVT890403.144
p2835
(I2847
I2
tp2836
sVT890201.130
p2837
(I2762
I2
tp2838
sVT951020.291
p2839
(I2494
I2
tp2840
sVT951020.290
p2841
(I2493
I2
tp2842
sVT890410.170
p2843
(I2863
I2
tp2844
sVT890411.76
p2845
(I2864
I3
tp2846
sVT951020.100
p2847
(I2379
I2
tp2848
sVT951020.107
p2849
(I2381
I2
tp2850
sVT951020.104
p2851
(I2380
I3
tp2852
sVT920713.136
p2853
(I1334
I3
tp2854
sVT920713.135
p2855
(I1333
I2
tp2856
sVT920713.134
p2857
(I1332
I2
tp2858
sVT920713.133
p2859
(I1331
I3
tp2860
sVT920713.132
p2861
(I1330
I2
tp2862
sVT920713.131
p2863
(I1329
I2
tp2864
sVT951018.226
p2865
(I2090
I3
tp2866
sVT951017.189
p2867
(I1938
I2
tp2868
sVT890118.82
p2869
(I2747
I2
tp2870
sVT970602.277
p2871
(I2581
I2
tp2872
sVT951017.188
p2873
(I1937
I1
tp2874
sVT990430.125
p2875
(I828
I2
tp2876
sVT990430.124
p2877
(I827
I2
tp2878
sVT990430.127
p2879
(I829
I2
tp2880
sVT990430.121
p2881
(I825
I1
tp2882
sVT990430.120
p2883
(I824
I1
tp2884
sVT990507.201
p2885
(I136
I3
tp2886
sVT990430.122
p2887
(I826
I2
tp2888
sVT970503.51
p2889
(I2564
I2
tp2890
sVT990430.129
p2891
(I831
I1
tp2892
sVT990430.128
p2893
(I830
I1
tp2894
sVT970812.149
p2895
(I2632
I2
tp2896
sVT951017.124
p2897
(I1914
I2
tp2898
sVT951017.122
p2899
(I1913
I2
tp2900
sVT951017.121
p2901
(I1912
I2
tp2902
sVT951017.129
p2903
(I1915
I2
tp2904
sVT890116.194
p2905
(I2742
I2
tp2906
sVT920711.177
p2907
(I1061
I2
tp2908
sVT920711.176
p2909
(I1060
I1
tp2910
sVT920711.171
p2911
(I1059
I3
tp2912
sVT920711.170
p2913
(I1058
I2
tp2914
sVT970404.48
p2915
(I2546
I2
tp2916
sVT990503.128
p2917
(I413
I2
tp2918
sVT990503.129
p2919
(I414
I1
tp2920
sVT990503.122
p2921
(I408
I0
tp2922
sVT990503.123
p2923
(I409
I1
tp2924
sVT990503.120
p2925
(I406
I1
tp2926
sVT990503.121
p2927
(I407
I1
tp2928
sVT990503.126
p2929
(I412
I2
tp2930
sVT990503.124
p2931
(I410
I1
tp2932
sVT990503.125
p2933
(I411
I2
tp2934
sVT951016.252
p2935
(I1833
I3
tp2936
sVT951016.253
p2937
(I1834
I2
tp2938
sVT951016.254
p2939
(I1835
I2
tp2940
sVT951016.255
p2941
(I1836
I1
tp2942
sVT951016.256
p2943
(I1837
I1
tp2944
sVT951016.257
p2945
(I1838
I1
tp2946
sVT951016.258
p2947
(I1839
I1
tp2948
sVT951016.259
p2949
(I1840
I1
tp2950
sVT970621.40
p2951
(I2594
I2
tp2952
sVT951017.239
p2953
(I1974
I2
tp2954
sVT971203.113
p2955
(I2710
I2
tp2956
sVT951017.232
p2957
(I1971
I2
tp2958
sVT951017.231
p2959
(I1970
I2
tp2960
sVT920710.93
p2961
(I1154
I2
tp2962
sVT951017.235
p2963
(I1973
I2
tp2964
sVT951017.234
p2965
(I1972
I2
tp2966
sVT951014.142
p2967
(I1564
I1
tp2968
sVT951014.141
p2969
(I1563
I2
tp2970
sVT951014.146
p2971
(I1565
I2
tp2972
sVT951014.212
p2973
(I1599
I2
tp2974
sVT951014.211
p2975
(I1598
I2
tp2976
sVT951014.216
p2977
(I1600
I2
tp2978
sVT951014.217
p2979
(I1601
I2
tp2980
sVT951019.122
p2981
(I2202
I2
tp2982
sVT970404.221
p2983
(I2547
I3
tp2984
sVT951014.218
p2985
(I1602
I3
tp2986
sVT920710.99
p2987
(I1157
I2
tp2988
sVT990503.99
p2989
(I390
I0
tp2990
sVT990503.98
p2991
(I389
I3
tp2992
sVT990503.92
p2993
(I386
I0
tp2994
sVT990503.90
p2995
(I385
I1
tp2996
sVT990503.97
p2997
(I388
I1
tp2998
sVT990503.96
p2999
(I387
I1
tp3000
sVT890404.13
p3001
(I2849
I3
tp3002
sVT990504.220
p3003
(I634
I1
tp3004
sVT890214.213
p3005
(I2776
I2
tp3006
sVT951016.84
p3007
(I1738
I2
tp3008
sVT890228.164
p3009
(I2801
I3
tp3010
sVT890117.179
p3011
(I2745
I2
tp3012
sVT951014.329
p3013
(I1637
I2
tp3014
sVT951014.322
p3015
(I1636
I3
tp3016
sVT990507.51
p3017
(I40
I1
tp3018
sVT890502.87
p3019
(I2894
I3
tp3020
sVT890323.69
p3021
(I2829
I3
tp3022
sVT971113.206
p3023
(I2699
I1
tp3024
sVT970722.83
p3025
(I2622
I2
tp3026
sVT970909.83
p3027
(I2652
I1
tp3028
sVT890322.55
p3029
(I2825
I2
tp3030
sVT970626.66
p3031
(I2601
I2
tp3032
sVT970102.150
p3033
(I2495
I2
tp3034
sVT970102.151
p3035
(I2496
I2
tp3036
sVT951019.60
p3037
(I2172
I2
tp3038
sVT890128.24
p3039
(I2756
I1
tp3040
sVT970108.169
p3041
(I2500
I2
tp3042
sVT970520.208
p3043
(I2576
I2
tp3044
sVT920713.5
p3045
(I1246
I2
tp3046
sVT920713.4
p3047
(I1245
I2
tp3048
sVT920713.6
p3049
(I1247
I2
tp3050
sVT920713.1
p3051
(I1242
I2
tp3052
sVT920713.3
p3053
(I1244
I2
tp3054
sVT920713.2
p3055
(I1243
I1
tp3056
sVT890401.10
p3057
(I2845
I3
tp3058
sVT970219.240
p3059
(I2523
I2
tp3060
sVT970710.76
p3061
(I2612
I2
tp3062
sVT951018.55
p3063
(I2022
I2
tp3064
sVT951014.155
p3065
(I1568
I1
tp3066
sVT951018.57
p3067
(I2023
I2
tp3068
sVT990506.129
p3069
(I240
I2
tp3070
sVT990506.128
p3071
(I239
I2
tp3072
sVT990506.127
p3073
(I238
I1
tp3074
sVT990506.126
p3075
(I237
I1
tp3076
sVT990506.125
p3077
(I236
I1
tp3078
sVT990506.123
p3079
(I235
I1
tp3080
sVT990506.122
p3081
(I234
I1
tp3082
sVT990506.121
p3083
(I233
I1
tp3084
sVT990506.120
p3085
(I232
I1
tp3086
sVT951014.156
p3087
(I1569
I1
tp3088
sVT920714.109
p3089
(I1435
I1
tp3090
sVT920714.108
p3091
(I1434
I3
tp3092
sVT920714.105
p3093
(I1431
I3
tp3094
sVT920714.104
p3095
(I1430
I3
tp3096
sVT920714.107
p3097
(I1433
I2
tp3098
sVT920714.106
p3099
(I1432
I1
tp3100
sVT920714.101
p3101
(I1427
I1
tp3102
sVT920714.100
p3103
(I1426
I1
tp3104
sVT920714.103
p3105
(I1429
I3
tp3106
sVT920714.102
p3107
(I1428
I3
tp3108
sVT951019.231
p3109
(I2277
I1
tp3110
sVT951019.233
p3111
(I2279
I1
tp3112
sVT951019.232
p3113
(I2278
I1
tp3114
sVT951019.235
p3115
(I2281
I1
tp3116
sVT951019.234
p3117
(I2280
I1
tp3118
sVT951019.236
p3119
(I2282
I1
tp3120
sVT951019.238
p3121
(I2283
I1
tp3122
sVT951014.152
p3123
(I1567
I2
tp3124
sVT970320.215
p3125
(I2540
I2
tp3126
sVT990504.189
p3127
(I609
I1
tp3128
sVT890216.162
p3129
(I2782
I2
tp3130
sVT951018.278
p3131
(I2131
I1
tp3132
sVT951018.279
p3133
(I2132
I1
tp3134
sVT890503.69
p3135
(I2897
I3
tp3136
sVT951019.95
p3137
(I2193
I3
tp3138
sVT951019.91
p3139
(I2192
I2
tp3140
sVT951018.270
p3141
(I2124
I1
tp3142
sVT951018.271
p3143
(I2125
I1
tp3144
sVT951018.272
p3145
(I2126
I1
tp3146
sVT951018.274
p3147
(I2127
I3
tp3148
sVT951018.275
p3149
(I2128
I2
tp3150
sVT951018.276
p3151
(I2129
I2
tp3152
sVT951018.277
p3153
(I2130
I2
tp3154
sVT920710.49
p3155
(I1122
I2
tp3156
sVT920710.47
p3157
(I1121
I2
tp3158
sVT920710.46
p3159
(I1120
I2
tp3160
sVT920710.45
p3161
(I1119
I3
tp3162
sVT920710.44
p3163
(I1118
I1
tp3164
sVT920710.43
p3165
(I1117
I2
tp3166
sVT920710.42
p3167
(I1116
I2
tp3168
sVT920710.41
p3169
(I1115
I2
tp3170
sVT990506.233
p3171
(I318
I2
tp3172
sVT990506.232
p3173
(I317
I2
tp3174
sVT990506.231
p3175
(I316
I1
tp3176
sVT990506.230
p3177
(I315
I2
tp3178
sVT990506.237
p3179
(I320
I3
tp3180
sVT990506.234
p3181
(I319
I2
tp3182
sVT970807.292
p3183
(I2629
I2
tp3184
sVT990506.239
p3185
(I322
I2
tp3186
sVT990506.238
p3187
(I321
I2
tp3188
sVT951018.130
p3189
(I2046
I2
tp3190
sVT951019.279
p3191
(I2307
I2
tp3192
sVT951019.278
p3193
(I2306
I2
tp3194
sVT951019.305
p3195
(I2325
I2
tp3196
sVT951016.83
p3197
(I1737
I2
tp3198
sVT951019.306
p3199
(I2326
I3
tp3200
sVT951019.301
p3201
(I2323
I1
tp3202
sVT990504.185
p3203
(I606
I2
tp3204
sVT890315.33
p3205
(I2820
I2
tp3206
sVT951019.302
p3207
(I2324
I2
tp3208
sVT890314.132
p3209
(I2819
I3
tp3210
sVT951019.309
p3211
(I2329
I1
tp3212
sVT951019.308
p3213
(I2328
I1
tp3214
sVT920713.15
p3215
(I1250
I1
tp3216
sVT920713.14
p3217
(I1249
I1
tp3218
sVT920713.17
p3219
(I1252
I1
tp3220
sVT920713.16
p3221
(I1251
I1
tp3222
sVT890420.70
p3223
(I2881
I2
tp3224
sVT951019.168
p3225
(I2231
I3
tp3226
sVT920713.13
p3227
(I1248
I2
tp3228
sVT951019.115
p3229
(I2200
I1
tp3230
sVT951019.167
p3231
(I2230
I2
tp3232
sVT951019.166
p3233
(I2229
I2
tp3234
sVT951019.161
p3235
(I2226
I2
tp3236
sVT920713.18
p3237
(I1253
I2
tp3238
sVT951019.163
p3239
(I2228
I2
tp3240
sVT951019.162
p3241
(I2227
I2
tp3242
sVT990505.86
p3243
(I679
I3
tp3244
sVT951020.213
p3245
(I2440
I3
tp3246
sVT990505.85
p3247
(I678
I3
tp3248
sVT990505.82
p3249
(I677
I2
tp3250
sVT970111.48
p3251
(I2501
I2
tp3252
sVT990505.80
p3253
(I675
I3
tp3254
sVT990505.81
p3255
(I676
I3
tp3256
sVT990505.88
p3257
(I680
I1
tp3258
sVT990505.89
p3259
(I681
I1
tp3260
sVT970218.173
p3261
(I2522
I2
tp3262
sVT951020.203
p3263
(I2432
I1
tp3264
sVT951020.216
p3265
(I2442
I3
tp3266
sVT951020.214
p3267
(I2441
I2
tp3268
sVT951020.280
p3269
(I2486
I0
tp3270
sVT951020.281
p3271
(I2487
I1
tp3272
sVT951020.282
p3273
(I2488
I1
tp3274
sVT951020.283
p3275
(I2489
I0
tp3276
sVT951020.287
p3277
(I2490
I2
tp3278
sVT951020.288
p3279
(I2491
I1
tp3280
sVT951020.289
p3281
(I2492
I2
tp3282
sVT951020.204
p3283
(I2433
I1
tp3284
sVT920713.128
p3285
(I1327
I1
tp3286
sVT920713.129
p3287
(I1328
I1
tp3288
sVT920713.125
p3289
(I1325
I2
tp3290
sVT920713.127
p3291
(I1326
I2
tp3292
sVT920713.120
p3293
(I1322
I2
tp3294
sVT920713.122
p3295
(I1323
I2
tp3296
sVT920713.123
p3297
(I1324
I2
tp3298
sVT890306.63
p3299
(I2808
I2
tp3300
sVT890215.220
p3301
(I2779
I3
tp3302
sVT990430.138
p3303
(I838
I3
tp3304
sVT990430.132
p3305
(I834
I1
tp3306
sVT990430.133
p3307
(I835
I2
tp3308
sVT990430.130
p3309
(I832
I1
tp3310
sVT990430.131
p3311
(I833
I1
tp3312
sVT990430.137
p3313
(I837
I2
tp3314
sVT990430.134
p3315
(I836
I2
tp3316
sVT990507.214
p3317
(I142
I3
tp3318
sVT990507.215
p3319
(I143
I1
tp3320
sVT990507.217
p3321
(I144
I1
tp3322
sVT951020.144
p3323
(I2393
I3
tp3324
sVT990507.211
p3325
(I139
I2
tp3326
sVT990507.212
p3327
(I140
I2
tp3328
sVT990507.213
p3329
(I141
I2
tp3330
sVT990507.219
p3331
(I145
I2
tp3332
sVT951017.135
p3333
(I1918
I3
tp3334
sVT951017.137
p3335
(I1919
I1
tp3336
sVT951017.131
p3337
(I1916
I2
tp3338
sVT951017.133
p3339
(I1917
I2
tp3340
sVT971213.347
p3341
(I2724
I3
tp3342
sVT970818.213
p3343
(I2639
I2
tp3344
sVT951017.139
p3345
(I1920
I1
tp3346
sVT920711.162
p3347
(I1052
I1
tp3348
sVT920711.163
p3349
(I1053
I2
tp3350
sVT920711.160
p3351
(I1051
I2
tp3352
sVT920711.166
p3353
(I1056
I3
tp3354
sVT920711.167
p3355
(I1057
I2
tp3356
sVT920711.164
p3357
(I1054
I2
tp3358
sVT920711.165
p3359
(I1055
I2
tp3360
sVT990507.84
p3361
(I53
I2
tp3362
sVT990507.85
p3363
(I54
I1
tp3364
sVT990507.86
p3365
(I55
I1
tp3366
sVT990507.87
p3367
(I56
I1
tp3368
sVT970208.11
p3369
(I2513
I2
tp3370
sVT890116.222
p3371
(I2743
I3
tp3372
sVT990503.158
p3373
(I439
I1
tp3374
sVT990503.157
p3375
(I438
I1
tp3376
sVT990503.156
p3377
(I437
I1
tp3378
sVT990503.155
p3379
(I436
I1
tp3380
sVT990503.154
p3381
(I435
I2
tp3382
sVT990503.153
p3383
(I434
I2
tp3384
sVT990503.152
p3385
(I433
I2
tp3386
sVT990503.150
p3387
(I432
I1
tp3388
sVT951016.265
p3389
(I1844
I1
tp3390
sVT951016.264
p3391
(I1843
I2
tp3392
sVT951016.267
p3393
(I1846
I1
tp3394
sVT951016.266
p3395
(I1845
I2
tp3396
sVT951016.263
p3397
(I1842
I2
tp3398
sVT951016.262
p3399
(I1841
I3
tp3400
sVT890420.102
p3401
(I2882
I2
tp3402
sVT951017.228
p3403
(I1968
I1
tp3404
sVT951017.220
p3405
(I1962
I1
tp3406
sVT951017.221
p3407
(I1963
I2
tp3408
sVT951017.222
p3409
(I1964
I2
tp3410
sVT951017.223
p3411
(I1965
I3
tp3412
sVT951017.226
p3413
(I1966
I1
tp3414
sVT951017.227
p3415
(I1967
I1
tp3416
sVT951014.134
p3417
(I1562
I1
tp3418
sVT970922.154
p3419
(I2659
I2
tp3420
sVT890204.113
p3421
(I2765
I2
tp3422
sVT951014.267
p3423
(I1614
I3
tp3424
sVT970625.163
p3425
(I2599
I2
tp3426
sVT990503.8
p3427
(I343
I1
tp3428
sVT970515.87
p3429
(I2571
I2
tp3430
sVT990503.3
p3431
(I339
I2
tp3432
sVT990503.2
p3433
(I338
I1
tp3434
sVT951019.19
p3435
(I2144
I1
tp3436
sVT990503.7
p3437
(I342
I1
tp3438
sVT990503.6
p3439
(I341
I1
tp3440
sVT990503.4
p3441
(I340
I3
tp3442
sVT951019.16
p3443
(I2142
I2
tp3444
sVT890118.245
p3445
(I2748
I2
tp3446
sVT951019.15
p3447
(I2141
I2
tp3448
sVT970714.138
p3449
(I2619
I2
tp3450
sVT971114.146
p3451
(I2701
I3
tp3452
sVT890328.33
p3453
(I2834
I3
tp3454
sVT951019.10
p3455
(I2140
I2
tp3456
sVT971106.173
p3457
(I2693
I2
tp3458
sVT970816.256
p3459
(I2638
I2
tp3460
sVT951020.46
p3461
(I2353
I2
tp3462
sVT971015.138
p3463
(I2674
I3
tp3464
sVT970627.179
p3465
(I2604
I3
tp3466
sVT970812.210
p3467
(I2633
I2
tp3468
sVT890413.86
p3469
(I2871
I3
tp3470
sVT951016.241
p3471
(I1826
I1
tp3472
sVT951016.240
p3473
(I1825
I1
tp3474
sVT951016.247
p3475
(I1830
I1
tp3476
sVT970118.35
p3477
(I2506
I2
tp3478
sVT951016.246
p3479
(I1829
I2
tp3480
sVT970815.154
p3481
(I2634
I2
tp3482
sVT951016.245
p3483
(I1828
I2
tp3484
sVT951017.197
p3485
(I1944
I2
tp3486
sVT951016.244
p3487
(I1827
I3
tp3488
sVT971201.162
p3489
(I2709
I2
tp3490
sVT951017.194
p3491
(I1943
I2
tp3492
sVT971006.65
p3493
(I2669
I3
tp3494
sVT971212.14
p3495
(I2721
I2
tp3496
sVT970710.153
p3497
(I2614
I2
tp3498
sVT951017.192
p3499
(I1941
I1
tp3500
sVT890225.91
p3501
(I2797
I3
tp3502
sVT990503.208
p3503
(I471
I1
tp3504
sVT890418.13
p3505
(I2874
I2
tp3506
sVT990503.203
p3507
(I467
I3
tp3508
sVT990503.201
p3509
(I466
I3
tp3510
sVT951017.191
p3511
(I1940
I1
tp3512
sVT990503.207
p3513
(I470
I1
tp3514
sVT990503.205
p3515
(I469
I1
tp3516
sVT990503.204
p3517
(I468
I1
tp3518
sVT890121.161
p3519
(I2750
I3
tp3520
sVT951020.42
p3521
(I2352
I2
tp3522
sVT920713.53
p3523
(I1278
I1
tp3524
sVT920713.52
p3525
(I1277
I1
tp3526
sVT990506.138
p3527
(I246
I2
tp3528
sVT990506.134
p3529
(I242
I2
tp3530
sVT990506.135
p3531
(I243
I2
tp3532
sVT990506.136
p3533
(I244
I2
tp3534
sVT990506.137
p3535
(I245
I2
tp3536
sVT990506.131
p3537
(I241
I2
tp3538
sVT920714.112
p3539
(I1438
I3
tp3540
sVT920714.113
p3541
(I1439
I1
tp3542
sVT920714.110
p3543
(I1436
I2
tp3544
sVT920714.111
p3545
(I1437
I1
tp3546
sVT920714.116
p3547
(I1442
I1
tp3548
sVT951017.198
p3549
(I1945
I2
tp3550
sVT920714.114
p3551
(I1440
I3
tp3552
sVT920714.115
p3553
(I1441
I3
tp3554
sVT971211.183
p3555
(I2719
I2
tp3556
sVT920714.118
p3557
(I1443
I2
tp3558
sVT920714.119
p3559
(I1444
I3
tp3560
sVT890116.80
p3561
(I2741
I2
tp3562
sVT951019.226
p3563
(I2274
I2
tp3564
sVT951019.227
p3565
(I2275
I2
tp3566
sVT951019.224
p3567
(I2272
I1
tp3568
sVT951019.225
p3569
(I2273
I2
tp3570
sVT951019.222
p3571
(I2270
I1
tp3572
sVT951019.223
p3573
(I2271
I1
tp3574
sVT951019.220
p3575
(I2268
I1
tp3576
sVT951019.221
p3577
(I2269
I1
tp3578
sVT951019.229
p3579
(I2276
I3
tp3580
sVT951019.84
p3581
(I2188
I2
tp3582
sVT951019.87
p3583
(I2190
I2
tp3584
sVT951019.86
p3585
(I2189
I2
tp3586
sVT951019.81
p3587
(I2187
I2
tp3588
sVT951018.248
p3589
(I2107
I1
tp3590
sVT951018.245
p3591
(I2105
I1
tp3592
sVT951018.244
p3593
(I2104
I1
tp3594
sVT990506.93
p3595
(I210
I1
tp3596
sVT951018.241
p3597
(I2102
I2
tp3598
sVT951018.240
p3599
(I2101
I1
tp3600
sVT951018.242
p3601
(I2103
I2
tp3602
sVT971210.123
p3603
(I2717
I3
tp3604
sVT990506.220
p3605
(I306
I1
tp3606
sVT920711.184
p3607
(I1064
I2
tp3608
sVT990506.222
p3609
(I307
I3
tp3610
sVT990506.223
p3611
(I308
I2
tp3612
sVT990506.224
p3613
(I309
I2
tp3614
sVT990506.225
p3615
(I310
I2
tp3616
sVT990506.226
p3617
(I311
I3
tp3618
sVT990506.227
p3619
(I312
I2
tp3620
sVT990506.228
p3621
(I313
I3
tp3622
sVT990506.229
p3623
(I314
I1
tp3624
sVT920711.187
p3625
(I1066
I2
tp3626
sVT920711.180
p3627
(I1062
I3
tp3628
sVT951019.311
p3629
(I2330
I1
tp3630
sVT890302.174
p3631
(I2802
I2
tp3632
sVT951018.60
p3633
(I2024
I2
tp3634
sVT951018.63
p3635
(I2025
I2
tp3636
sVT951018.64
p3637
(I2026
I2
tp3638
sVT951018.65
p3639
(I2027
I2
tp3640
sVT951018.66
p3641
(I2028
I2
tp3642
sVT890506.200
p3643
(I2902
I2
tp3644
sVT951019.172
p3645
(I2233
I2
tp3646
sVT951019.173
p3647
(I2234
I1
tp3648
sVT951019.171
p3649
(I2232
I2
tp3650
sVT951019.176
p3651
(I2236
I1
tp3652
sVT951019.177
p3653
(I2237
I1
tp3654
sVT920711.19
p3655
(I960
I1
tp3656
sVT920711.18
p3657
(I959
I3
tp3658
sVT920711.17
p3659
(I958
I2
tp3660
sVT920711.16
p3661
(I957
I1
tp3662
sVT920711.15
p3663
(I956
I1
tp3664
sVT920711.14
p3665
(I955
I1
tp3666
sVT920711.13
p3667
(I954
I1
tp3668
sVT920711.11
p3669
(I953
I2
tp3670
sVT990505.95
p3671
(I687
I2
tp3672
sVT990505.94
p3673
(I686
I1
tp3674
sVT990505.96
p3675
(I688
I2
tp3676
sVT990505.91
p3677
(I683
I1
tp3678
sVT990505.90
p3679
(I682
I2
tp3680
sVT990505.93
p3681
(I685
I2
tp3682
sVT990505.92
p3683
(I684
I1
tp3684
sVT990505.99
p3685
(I690
I1
tp3686
sVT990505.98
p3687
(I689
I3
tp3688
sVT951020.75
p3689
(I2369
I2
tp3690
sVT951020.212
p3691
(I2439
I2
tp3692
sVT951020.78
p3693
(I2370
I2
tp3694
sVT951019.76
p3695
(I2184
I1
tp3696
sVT990507.197
p3697
(I134
I2
tp3698
sVT990507.196
p3699
(I133
I2
tp3700
sVT920713.113
p3701
(I1316
I2
tp3702
sVT920713.112
p3703
(I1315
I2
tp3704
sVT920713.115
p3705
(I1317
I2
tp3706
sVT951019.77
p3707
(I2185
I2
tp3708
sVT920713.117
p3709
(I1319
I2
tp3710
sVT920713.116
p3711
(I1318
I2
tp3712
sVT920713.119
p3713
(I1321
I3
tp3714
sVT920713.118
p3715
(I1320
I2
tp3716
sVT990507.198
p3717
(I135
I2
tp3718
sVT971111.125
p3719
(I2696
I2
tp3720
sVT890211.57
p3721
(I2773
I3
tp3722
sVT920713.28
p3723
(I1259
I2
tp3724
sVT920713.29
p3725
(I1260
I2
tp3726
sVT990506.30
p3727
(I171
I1
tp3728
sVT990506.37
p3729
(I174
I1
tp3730
sVT990506.34
p3731
(I172
I2
tp3732
sVT990506.35
p3733
(I173
I2
tp3734
sVT920713.20
p3735
(I1254
I3
tp3736
sVT920713.21
p3737
(I1255
I2
tp3738
sVT990506.38
p3739
(I175
I1
tp3740
sVT920713.24
p3741
(I1256
I2
tp3742
sVT920713.25
p3743
(I1257
I2
tp3744
sVT920713.27
p3745
(I1258
I1
tp3746
sVT970307.139
p3747
(I2531
I0
tp3748
sVT951014.206
p3749
(I1595
I3
tp3750
sVT970106.143
p3751
(I2499
I2
tp3752
sVT990430.149
p3753
(I845
I3
tp3754
sVT990430.148
p3755
(I844
I3
tp3756
sVT990430.147
p3757
(I843
I3
tp3758
sVT990430.144
p3759
(I842
I2
tp3760
sVT990430.143
p3761
(I841
I1
tp3762
sVT990507.224
p3763
(I148
I1
tp3764
sVT990430.141
p3765
(I840
I1
tp3766
sVT990430.140
p3767
(I839
I1
tp3768
sVT951017.108
p3769
(I1908
I3
tp3770
sVT951017.101
p3771
(I1905
I3
tp3772
sVT951014.268
p3773
(I1615
I2
tp3774
sVT951017.107
p3775
(I1907
I2
tp3776
sVT971004.216
p3777
(I2667
I2
tp3778
sVT971230.158
p3779
(I2728
I2
tp3780
sVT951017.34
p3781
(I1863
I2
tp3782
sVT920711.117
p3783
(I1027
I2
tp3784
sVT920711.116
p3785
(I1026
I2
tp3786
sVT920711.115
p3787
(I1025
I3
tp3788
sVT951017.39
p3789
(I1867
I2
tp3790
sVT920711.113
p3791
(I1024
I2
tp3792
sVT920711.112
p3793
(I1023
I2
tp3794
sVT990507.99
p3795
(I64
I2
tp3796
sVT990430.15
p3797
(I775
I1
tp3798
sVT990507.97
p3799
(I62
I1
tp3800
sVT951017.33
p3801
(I1862
I2
tp3802
sVT990430.18
p3803
(I777
I3
tp3804
sVT990507.94
p3805
(I61
I2
tp3806
sVT990507.93
p3807
(I60
I2
tp3808
sVT951017.37
p3809
(I1865
I2
tp3810
sVT920711.119
p3811
(I1029
I2
tp3812
sVT920711.118
p3813
(I1028
I2
tp3814
sVT990503.148
p3815
(I430
I2
tp3816
sVT990503.149
p3817
(I431
I2
tp3818
sVT990503.145
p3819
(I427
I2
tp3820
sVT990503.146
p3821
(I428
I2
tp3822
sVT990503.147
p3823
(I429
I3
tp3824
sVT990503.140
p3825
(I424
I3
tp3826
sVT990503.141
p3827
(I425
I3
tp3828
sVT990503.142
p3829
(I426
I1
tp3830
sVT951017.230
p3831
(I1969
I2
tp3832
sVT970808.143
p3833
(I2630
I3
tp3834
sVT970506.113
p3835
(I2566
I3
tp3836
sVT951016.143
p3837
(I1768
I2
tp3838
sVT951017.219
p3839
(I1961
I2
tp3840
sVT951017.218
p3841
(I1960
I1
tp3842
sVT971030.89
p3843
(I2685
I1
tp3844
sVT951017.215
p3845
(I1957
I1
tp3846
sVT951017.214
p3847
(I1956
I3
tp3848
sVT951017.217
p3849
(I1959
I2
tp3850
sVT951017.216
p3851
(I1958
I1
tp3852
sVT951017.211
p3853
(I1953
I2
tp3854
sVT951017.210
p3855
(I1952
I2
tp3856
sVT990505.52
p3857
(I661
I1
tp3858
sVT951017.212
p3859
(I1954
I2
tp3860
sVT951014.124
p3861
(I1561
I2
tp3862
sVT951014.271
p3863
(I1616
I2
tp3864
sVT890322.74
p3865
(I2826
I3
tp3866
sVT990507.66
p3867
(I51
I2
tp3868
sVT951018.247
p3869
(I2106
I1
tp3870
sVT970823.276
p3871
(I2644
I1
tp3872
sVT970714.124
p3873
(I2618
I2
tp3874
sVT951019.89
p3875
(I2191
I2
tp3876
sVT970217.238
p3877
(I2521
I2
tp3878
sVT971029.78
p3879
(I2683
I3
tp3880
sVT951020.242
p3881
(I2461
I1
tp3882
sVT951019.78
p3883
(I2186
I2
tp3884
sVT890412.145
p3885
(I2870
I2
tp3886
sVT970505.33
p3887
(I2565
I2
tp3888
sVT890124.73
p3889
(I2751
I2
tp3890
sVT970517.198
p3891
(I2574
I3
tp3892
sVT951019.277
p3893
(I2305
I2
tp3894
sVT970115.55
p3895
(I2505
I2
tp3896
sVT890306.29
p3897
(I2807
I2
tp3898
sVT970710.143
p3899
(I2613
I2
tp3900
sVT990503.212
p3901
(I472
I2
tp3902
sVT990503.213
p3903
(I473
I2
tp3904
sVT990503.214
p3905
(I474
I2
tp3906
sVT990503.215
p3907
(I475
I2
tp3908
sVT990503.216
p3909
(I476
I2
tp3910
sVT990503.217
p3911
(I477
I2
tp3912
sVT970624.145
p3913
(I2597
I2
tp3914
sVT990506.101
p3915
(I218
I1
tp3916
sVT990506.100
p3917
(I217
I2
tp3918
sVT990506.103
p3919
(I219
I3
tp3920
sVT990506.105
p3921
(I221
I2
tp3922
sVT990506.104
p3923
(I220
I1
tp3924
sVT990506.107
p3925
(I222
I2
tp3926
sVT990506.109
p3927
(I224
I1
tp3928
sVT990506.108
p3929
(I223
I1
tp3930
sVT970820.91
p3931
(I2640
I2
tp3932
sVT971111.161
p3933
(I2697
I2
tp3934
sVT920714.164
p3935
(I1462
I3
tp3936
sVT920714.163
p3937
(I1461
I1
tp3938
sVT920714.160
p3939
(I1460
I1
tp3940
sVT920714.169
p3941
(I1463
I2
tp3942
sVT890213.24
p3943
(I2774
I2
tp3944
sVT970926.83
p3945
(I2662
I2
tp3946
sVT970816.230
p3947
(I2637
I2
tp3948
sVT951018.252
p3949
(I2110
I2
tp3950
sVT951018.253
p3951
(I2111
I1
tp3952
sVT951018.250
p3953
(I2108
I1
tp3954
sVT951018.251
p3955
(I2109
I2
tp3956
sVT951018.257
p3957
(I2114
I2
tp3958
sVT951018.254
p3959
(I2112
I1
tp3960
sVT951018.255
p3961
(I2113
I1
tp3962
sVT951018.258
p3963
(I2115
I2
tp3964
sVT990506.214
p3965
(I301
I1
tp3966
sVT990506.217
p3967
(I303
I2
tp3968
sVT990506.216
p3969
(I302
I3
tp3970
sVT990506.211
p3971
(I298
I1
tp3972
sVT990506.210
p3973
(I297
I1
tp3974
sVT990506.213
p3975
(I300
I1
tp3976
sVT990506.212
p3977
(I299
I1
tp3978
sVT990506.219
p3979
(I305
I1
tp3980
sVT990506.218
p3981
(I304
I1
tp3982
sVT920710.181
p3983
(I1212
I1
tp3984
sVT920710.180
p3985
(I1211
I0
tp3986
sVT920710.183
p3987
(I1214
I1
tp3988
sVT920710.182
p3989
(I1213
I1
tp3990
sVT920710.185
p3991
(I1216
I2
tp3992
sVT920710.184
p3993
(I1215
I1
tp3994
sVT920710.187
p3995
(I1218
I2
tp3996
sVT920710.186
p3997
(I1217
I2
tp3998
sVT920710.189
p3999
(I1220
I2
tp4000
sVT920710.188
p4001
(I1219
I2
tp4002
sVT951018.77
p4003
(I2032
I2
tp4004
sVT951018.73
p4005
(I2031
I2
tp4006
sVT951018.72
p4007
(I2030
I3
tp4008
sVT951018.71
p4009
(I2029
I2
tp4010
sVT920710.169
p4011
(I1203
I2
tp4012
sVT920710.168
p4013
(I1202
I1
tp4014
sVT951019.102
p4015
(I2194
I1
tp4016
sVT920710.163
p4017
(I1197
I2
tp4018
sVT920710.161
p4019
(I1196
I2
tp4020
sVT951018.286
p4021
(I2137
I1
tp4022
sVT920710.167
p4023
(I1201
I2
tp4024
sVT920710.166
p4025
(I1200
I2
tp4026
sVT920710.165
p4027
(I1199
I1
tp4028
sVT920710.164
p4029
(I1198
I2
tp4030
sVT951016.218
p4031
(I1809
I1
tp4032
sVT970213.389
p4033
(I2518
I2
tp4034
sVT951016.219
p4035
(I1810
I2
tp4036
sVT890201.88
p4037
(I2761
I2
tp4038
sVT951018.6
p4039
(I1997
I2
tp4040
sVT890207.104
p4041
(I2768
I2
tp4042
sVT951019.250
p4043
(I2289
I2
tp4044
sVT890220.95
p4045
(I2790
I2
tp4046
sVT890308.220
p4047
(I2810
I2
tp4048
sVT951019.40
p4049
(I2157
I1
tp4050
sVT890410.149
p4051
(I2862
I2
tp4052
sVT951020.134
p4053
(I2390
I3
tp4054
sVT951020.135
p4055
(I2391
I1
tp4056
sVT990507.184
p4057
(I125
I2
tp4058
sVT990507.186
p4059
(I126
I2
tp4060
sVT990507.187
p4061
(I127
I1
tp4062
sVT920713.102
p4063
(I1313
I2
tp4064
sVT990507.181
p4065
(I123
I2
tp4066
sVT920713.100
p4067
(I1312
I1
tp4068
sVT951016.89
p4069
(I1740
I2
tp4070
sVT951016.213
p4071
(I1805
I1
tp4072
sVT990507.188
p4073
(I128
I1
tp4074
sVT951019.259
p4075
(I2292
I3
tp4076
sVT951019.43
p4077
(I2159
I1
tp4078
sVT971103.215
p4079
(I2689
I1
tp4080
sVT990506.21
p4081
(I165
I2
tp4082
sVT990506.24
p4083
(I166
I2
tp4084
sVT920713.39
p4085
(I1267
I1
tp4086
sVT990506.26
p4087
(I167
I1
tp4088
sVT920713.37
p4089
(I1266
I3
tp4090
sVT920713.36
p4091
(I1265
I2
tp4092
sVT920713.34
p4093
(I1264
I0
tp4094
sVT920713.32
p4095
(I1263
I1
tp4096
sVT920713.31
p4097
(I1262
I3
tp4098
sVT920713.30
p4099
(I1261
I1
tp4100
sVT990430.158
p4101
(I850
I1
tp4102
sVT990430.156
p4103
(I848
I2
tp4104
sVT990430.157
p4105
(I849
I3
tp4106
sVT990430.150
p4107
(I846
I2
tp4108
sVT990430.153
p4109
(I847
I3
tp4110
sVT970626.350
p4111
(I2603
I2
tp4112
sVT951017.116
p4113
(I1911
I1
tp4114
sVT951017.114
p4115
(I1910
I1
tp4116
sVT951017.111
p4117
(I1909
I2
tp4118
sVT951019.174
p4119
(I2235
I2
tp4120
sVT920711.104
p4121
(I1020
I2
tp4122
sVT920711.105
p4123
(I1021
I2
tp4124
sVT920711.106
p4125
(I1022
I2
tp4126
sVT990507.61
p4127
(I48
I2
tp4128
sVT920711.100
p4129
(I1019
I2
tp4130
sVT951017.21
p4131
(I1856
I2
tp4132
sVT951017.23
p4133
(I1858
I1
tp4134
sVT951017.22
p4135
(I1857
I2
tp4136
sVT951017.24
p4137
(I1859
I2
tp4138
sVT951017.26
p4139
(I1860
I2
tp4140
sVT990503.170
p4141
(I449
I2
tp4142
sVT951017.8
p4143
(I1848
I2
tp4144
sVT990503.172
p4145
(I450
I2
tp4146
sVT990503.175
p4147
(I451
I1
tp4148
sVT990503.177
p4149
(I452
I2
tp4150
sVT951016.208
p4151
(I1800
I3
tp4152
sVT990503.179
p4153
(I454
I2
tp4154
sVT990503.178
p4155
(I453
I1
tp4156
sVT951016.203
p4157
(I1797
I2
tp4158
sVT951016.202
p4159
(I1796
I2
tp4160
sVT951016.201
p4161
(I1795
I1
tp4162
sVT951016.200
p4163
(I1794
I1
tp4164
sVT951017.202
p4165
(I1948
I1
tp4166
sVT951017.203
p4167
(I1949
I1
tp4168
sVT951017.200
p4169
(I1947
I1
tp4170
sVT951017.207
p4171
(I1950
I3
tp4172
sVT951017.208
p4173
(I1951
I2
tp4174
sVT890311.105
p4175
(I2814
I2
tp4176
sVT951014.111
p4177
(I1559
I2
tp4178
sVT951014.110
p4179
(I1558
I2
tp4180
sVT951016.68
p4181
(I1730
I2
tp4182
sVT951014.112
p4183
(I1560
I2
tp4184
sVT951016.62
p4185
(I1725
I2
tp4186
sVT951016.63
p4187
(I1726
I2
tp4188
sVT971107.357
p4189
(I2694
I2
tp4190
sVT951016.66
p4191
(I1729
I2
tp4192
sVT951016.64
p4193
(I1727
I2
tp4194
sVT951016.65
p4195
(I1728
I2
tp4196
sVT970808.169
p4197
(I2631
I2
tp4198
sVT971211.247
p4199
(I2720
I2
tp4200
sVT951016.79
p4201
(I1736
I2
tp4202
sVT951016.199
p4203
(I1793
I2
tp4204
sVT951016.196
p4205
(I1792
I1
tp4206
sVT951016.195
p4207
(I1791
I1
tp4208
sVT951016.193
p4209
(I1790
I1
tp4210
sVT951016.192
p4211
(I1789
I1
tp4212
sVT951016.191
p4213
(I1788
I2
tp4214
sVT951016.190
p4215
(I1787
I2
tp4216
sVT890103.208
p4217
(I2733
I2
tp4218
sVT920714.220
p4219
(I1503
I1
tp4220
sVT920714.221
p4221
(I1504
I3
tp4222
sVT920714.222
p4223
(I1505
I3
tp4224
sVT920714.223
p4225
(I1506
I3
tp4226
sVT970821.256
p4227
(I2643
I2
tp4228
sVT890104.37
p4229
(I2735
I3
tp4230
sVT990503.198
p4231
(I465
I1
tp4232
sVT990503.193
p4233
(I461
I2
tp4234
sVT990503.192
p4235
(I460
I2
tp4236
sVT990503.191
p4237
(I459
I3
tp4238
sVT990503.197
p4239
(I464
I2
tp4240
sVT990503.196
p4241
(I463
I1
tp4242
sVT990503.195
p4243
(I462
I2
tp4244
sVT951016.139
p4245
(I1764
I2
tp4246
sVT970729.234
p4247
(I2625
I2
tp4248
sVT951020.125
p4249
(I2388
I2
tp4250
sVT890206.26
p4251
(I2766
I1
tp4252
sVT920713.93
p4253
(I1305
I1
tp4254
sVT990506.48
p4255
(I178
I2
tp4256
sVT890331.34
p4257
(I2842
I2
tp4258
sVT970314.251
p4259
(I2537
I1
tp4260
sVT990503.222
p4261
(I478
I1
tp4262
sVT990503.28
p4263
(I356
I3
tp4264
sVT890428.28
p4265
(I2891
I1
tp4266
sVT990503.22
p4267
(I353
I1
tp4268
sVT990503.23
p4269
(I354
I1
tp4270
sVT990503.20
p4271
(I351
I1
tp4272
sVT990503.21
p4273
(I352
I1
tp4274
sVT990503.25
p4275
(I355
I2
tp4276
sVT990506.116
p4277
(I230
I3
tp4278
sVT951019.74
p4279
(I2183
I3
tp4280
sVT990506.114
p4281
(I229
I3
tp4282
sVT990506.112
p4283
(I227
I1
tp4284
sVT990506.113
p4285
(I228
I2
tp4286
sVT990506.110
p4287
(I225
I1
tp4288
sVT990506.111
p4289
(I226
I1
tp4290
sVT990505.179
p4291
(I747
I1
tp4292
sVT990506.118
p4293
(I231
I2
tp4294
sVT920714.174
p4295
(I1467
I2
tp4296
sVT920711.88
p4297
(I1008
I3
tp4298
sVT920714.177
p4299
(I1469
I3
tp4300
sVT920714.170
p4301
(I1464
I1
tp4302
sVT920714.171
p4303
(I1465
I1
tp4304
sVT920714.172
p4305
(I1466
I1
tp4306
sVT920711.89
p4307
(I1009
I2
tp4308
sVT951019.70
p4309
(I2179
I2
tp4310
sVT951016.136
p4311
(I1761
I2
tp4312
sVT920714.178
p4313
(I1470
I2
tp4314
sVT920714.179
p4315
(I1471
I3
tp4316
sVT951020.126
p4317
(I2389
I2
tp4318
sVT951019.72
p4319
(I2181
I2
tp4320
sVT951018.219
p4321
(I2086
I1
tp4322
sVT951018.227
p4323
(I2091
I3
tp4324
sVT951018.216
p4325
(I2084
I2
tp4326
sVT951018.225
p4327
(I2089
I3
tp4328
sVT951018.221
p4329
(I2088
I1
tp4330
sVT951018.220
p4331
(I2087
I1
tp4332
sVT951020.25
p4333
(I2340
I2
tp4334
sVT951018.214
p4335
(I2082
I1
tp4336
sVT920710.94
p4337
(I1155
I2
tp4338
sVT920710.95
p4339
(I1156
I2
tp4340
sVT890117.84
p4341
(I2744
I2
tp4342
sVT990506.209
p4343
(I296
I1
tp4344
sVT920710.91
p4345
(I1152
I1
tp4346
sVT920710.92
p4347
(I1153
I2
tp4348
sVT990504.15
p4349
(I480
I3
tp4350
sVT990506.203
p4351
(I292
I3
tp4352
sVT990506.200
p4353
(I290
I1
tp4354
sVT990506.201
p4355
(I291
I1
tp4356
sVT990506.206
p4357
(I294
I1
tp4358
sVT990506.207
p4359
(I295
I1
tp4360
sVT990506.204
p4361
(I293
I1
tp4362
sVT951018.213
p4363
(I2081
I1
tp4364
sVT970121.258
p4365
(I2508
I2
tp4366
sVT920710.196
p4367
(I1226
I2
tp4368
sVT920710.197
p4369
(I1227
I2
tp4370
sVT920710.195
p4371
(I1225
I2
tp4372
sVT920710.192
p4373
(I1223
I2
tp4374
sVT920710.193
p4375
(I1224
I2
tp4376
sVT920710.190
p4377
(I1221
I2
tp4378
sVT920710.191
p4379
(I1222
I2
tp4380
sVT920710.198
p4381
(I1228
I2
tp4382
sVT920710.199
p4383
(I1229
I1
tp4384
sVT951018.82
p4385
(I2033
I2
tp4386
sVT951018.83
p4387
(I2034
I2
tp4388
sVT951018.86
p4389
(I2036
I3
tp4390
sVT951018.87
p4391
(I2037
I1
tp4392
sVT951018.85
p4393
(I2035
I3
tp4394
sVT951020.123
p4395
(I2386
I2
tp4396
sVT951018.89
p4397
(I2038
I2
tp4398
sVT951018.136
p4399
(I2047
I0
tp4400
sVT920710.178
p4401
(I1209
I2
tp4402
sVT920710.179
p4403
(I1210
I2
tp4404
sVT951019.116
p4405
(I2201
I2
tp4406
sVT951019.111
p4407
(I2197
I2
tp4408
sVT951019.113
p4409
(I2198
I2
tp4410
sVT920710.170
p4411
(I1204
I2
tp4412
sVT920710.171
p4413
(I1205
I2
tp4414
sVT920710.173
p4415
(I1206
I3
tp4416
sVT920710.174
p4417
(I1207
I2
tp4418
sVT970826.120
p4419
(I2647
I2
tp4420
sVT920710.176
p4421
(I1208
I2
tp4422
sVT970415.268
p4423
(I2555
I2
tp4424
sVT951020.122
p4425
(I2385
I2
tp4426
sVT971002.169
p4427
(I2666
I3
tp4428
sVT920713.111
p4429
(I1314
I2
tp4430
sVT951020.124
p4431
(I2387
I1
tp4432
sVT990507.194
p4433
(I132
I2
tp4434
sVT920711.6
p4435
(I950
I2
tp4436
sVT990507.193
p4437
(I131
I1
tp4438
sVT951020.120
p4439
(I2384
I2
tp4440
sVT970308.43
p4441
(I2533
I2
tp4442
sVT920711.4
p4443
(I949
I2
tp4444
sVT990507.191
p4445
(I130
I1
tp4446
sVT951020.147
p4447
(I2394
I1
tp4448
sVT990507.190
p4449
(I129
I1
tp4450
sVT920711.2
p4451
(I948
I1
tp4452
sVT951016.97
p4453
(I1744
I2
tp4454
sVT951016.96
p4455
(I1743
I3
tp4456
sVT951016.95
p4457
(I1742
I2
tp4458
sVT951018.45
p4459
(I2016
I2
tp4460
sVT971106.102
p4461
(I2692
I2
tp4462
sVT951016.90
p4463
(I1741
I1
tp4464
sVT951016.99
p4465
(I1746
I3
tp4466
sVT951016.98
p4467
(I1745
I2
tp4468
sVT951014.207
p4469
(I1596
I3
tp4470
sVT970829.233
p4471
(I2651
I2
tp4472
sVT990506.14
p4473
(I160
I1
tp4474
sVT990506.15
p4475
(I161
I1
tp4476
sVT990506.16
p4477
(I162
I1
tp4478
sVT990506.17
p4479
(I163
I1
tp4480
sVT990506.10
p4481
(I157
I1
tp4482
sVT990506.11
p4483
(I158
I2
tp4484
sVT990506.12
p4485
(I159
I2
tp4486
sVT990506.19
p4487
(I164
I1
tp4488
sVT990430.160
p4489
(I851
I2
tp4490
sVT990430.162
p4491
(I852
I3
tp4492
sVT990430.164
p4493
(I853
I2
tp4494
sVT990430.167
p4495
(I854
I2
tp4496
sVT990430.169
p4497
(I856
I1
tp4498
sVT990430.168
p4499
(I855
I1
tp4500
sVT971006.165
p4501
(I2670
I3
tp4502
sVT920714.90
p4503
(I1418
I1
tp4504
sVT920714.91
p4505
(I1419
I1
tp4506
sVT920714.92
p4507
(I1420
I1
tp4508
sVT920714.93
p4509
(I1421
I2
tp4510
sVT920714.95
p4511
(I1422
I1
tp4512
sVT920714.96
p4513
(I1423
I2
tp4514
sVT951016.185
p4515
(I1784
I2
tp4516
sVT920714.98
p4517
(I1424
I2
tp4518
sVT920714.99
p4519
(I1425
I1
tp4520
sVT920711.139
p4521
(I1040
I2
tp4522
sVT951020.58
p4523
(I2361
I2
tp4524
sVT951020.59
p4525
(I2362
I2
tp4526
sVT920711.135
p4527
(I1038
I2
tp4528
sVT920711.134
p4529
(I1037
I2
tp4530
sVT920711.137
p4531
(I1039
I2
tp4532
sVT990507.70
p4533
(I52
I3
tp4534
sVT951017.18
p4535
(I1854
I2
tp4536
sVT951017.19
p4537
(I1855
I2
tp4538
sVT951017.15
p4539
(I1851
I2
tp4540
sVT951017.16
p4541
(I1852
I2
tp4542
sVT951017.17
p4543
(I1853
I2
tp4544
sVT990430.39
p4545
(I781
I1
tp4546
sVT951017.12
p4547
(I1850
I2
tp4548
sVT990503.166
p4549
(I446
I2
tp4550
sVT890321.138
p4551
(I2824
I2
tp4552
sVT990503.164
p4553
(I444
I1
tp4554
sVT990503.165
p4555
(I445
I2
tp4556
sVT990503.162
p4557
(I442
I2
tp4558
sVT990503.163
p4559
(I443
I2
tp4560
sVT990503.160
p4561
(I440
I1
tp4562
sVT990503.161
p4563
(I441
I1
tp4564
sVT951016.214
p4565
(I1806
I1
tp4566
sVT951016.215
p4567
(I1807
I2
tp4568
sVT951016.217
p4569
(I1808
I2
tp4570
sVT951016.210
p4571
(I1802
I2
tp4572
sVT951016.211
p4573
(I1803
I2
tp4574
sVT990503.168
p4575
(I447
I3
tp4576
sVT990503.169
p4577
(I448
I1
tp4578
sVT951017.41
p4579
(I1868
I2
tp4580
sVT970222.290
p4581
(I2524
I3
tp4582
sVT971004.305
p4583
(I2668
I2
tp4584
sVT951014.106
p4585
(I1554
I2
tp4586
sVT951014.107
p4587
(I1555
I2
tp4588
sVT951014.100
p4589
(I1553
I2
tp4590
sVT951016.71
p4591
(I1733
I2
tp4592
sVT951016.70
p4593
(I1732
I2
tp4594
sVT951016.75
p4595
(I1735
I2
tp4596
sVT951016.74
p4597
(I1734
I2
tp4598
sVT951014.108
p4599
(I1556
I2
tp4600
sVT951014.109
p4601
(I1557
I2
tp4602
sVT951020.140
p4603
(I2392
I3
tp4604
sVT971001.163
p4605
(I2665
I3
tp4606
sVT990430.219
p4607
(I890
I1
tp4608
sVT990430.218
p4609
(I889
I1
tp4610
sVT990430.213
p4611
(I885
I3
tp4612
sVT990430.212
p4613
(I884
I2
tp4614
sVT990430.211
p4615
(I883
I1
tp4616
sVT990430.210
p4617
(I882
I2
tp4618
sVT990430.217
p4619
(I888
I1
tp4620
sVT990430.216
p4621
(I887
I1
tp4622
sVT990430.215
p4623
(I886
I2
tp4624
sVT990430.189
p4625
(I873
I2
tp4626
sVT990430.188
p4627
(I872
I2
tp4628
sVT920711.9
p4629
(I952
I1
tp4630
sVT920711.8
p4631
(I951
I2
tp4632
sVT990430.183
p4633
(I867
I1
tp4634
sVT990430.182
p4635
(I866
I1
tp4636
sVT990430.181
p4637
(I865
I2
tp4638
sVT990430.180
p4639
(I864
I2
tp4640
sVT990430.187
p4641
(I871
I2
tp4642
sVT990430.186
p4643
(I870
I1
tp4644
sVT990430.185
p4645
(I869
I2
tp4646
sVT990430.184
p4647
(I868
I1
tp4648
sVT970506.172
p4649
(I2567
I2
tp4650
sVT920714.78
p4651
(I1411
I2
tp4652
sVT951016.188
p4653
(I1785
I2
tp4654
sVT951016.189
p4655
(I1786
I2
tp4656
sVT890221.64
p4657
(I2792
I3
tp4658
sVT920714.72
p4659
(I1405
I1
tp4660
sVT920714.73
p4661
(I1406
I2
tp4662
sVT920714.71
p4663
(I1404
I2
tp4664
sVT920714.76
p4665
(I1409
I2
tp4666
sVT920714.77
p4667
(I1410
I3
tp4668
sVT920714.74
p4669
(I1407
I3
tp4670
sVT920714.75
p4671
(I1408
I2
tp4672
sVT920714.211
p4673
(I1497
I3
tp4674
sVT920714.210
p4675
(I1496
I3
tp4676
sVT920714.213
p4677
(I1499
I1
tp4678
sVT920714.212
p4679
(I1498
I2
tp4680
sVT920714.215
p4681
(I1501
I3
tp4682
sVT920714.214
p4683
(I1500
I1
tp4684
sVT920714.219
p4685
(I1502
I1
tp4686
sVT890216.172
p4687
(I2783
I2
tp4688
sVT990507.180
p4689
(I122
I2
tp4690
sVT971215.117
p4691
(I2725
I2
tp4692
sVT990503.181
p4693
(I455
I2
tp4694
sVT990503.182
p4695
(I456
I2
tp4696
sVT990503.184
p4697
(I457
I1
tp4698
sVT990503.187
p4699
(I458
I2
tp4700
sVT990507.221
p4701
(I146
I2
tp4702
sVT951014.259
p4703
(I1612
I3
tp4704
sVT951014.257
p4705
(I1611
I3
tp4706
sVT990507.222
p4707
(I147
I2
tp4708
sVT970114.174
p4709
(I2504
I3
tp4710
sVT990507.226
p4711
(I149
I1
tp4712
sVT971216.26
p4713
(I2727
I3
tp4714
sVT971216.24
p4715
(I2726
I3
tp4716
sVT971206.261
p4717
(I2715
I3
tp4718
sVT890218.51
p4719
(I2786
I3
tp4720
sVT970610.73
p4721
(I2587
I2
tp4722
sVT890128.121
p4723
(I2757
I2
tp4724
sVT970410.201
p4725
(I2553
I2
tp4726
sVT951019.52
p4727
(I2166
I2
tp4728
sVT951014.89
p4729
(I1549
I2
tp4730
sVT951014.86
p4731
(I1548
I2
tp4732
sVT920714.143
p4733
(I1447
I2
tp4734
sVT920714.142
p4735
(I1446
I2
tp4736
sVT920714.145
p4737
(I1449
I2
tp4738
sVT920714.144
p4739
(I1448
I2
tp4740
sVT920714.147
p4741
(I1451
I3
tp4742
sVT920714.146
p4743
(I1450
I2
tp4744
sVT890325.53
p4745
(I2832
I3
tp4746
sVT971121.339
p4747
(I2705
I2
tp4748
sVT970402.158
p4749
(I2544
I2
tp4750
sVT990504.103
p4751
(I547
I2
tp4752
sVT990504.102
p4753
(I546
I2
tp4754
sVT990504.101
p4755
(I545
I2
tp4756
sVT990504.100
p4757
(I544
I3
tp4758
sVT990504.107
p4759
(I550
I1
tp4760
sVT990504.106
p4761
(I549
I1
tp4762
sVT990504.105
p4763
(I548
I1
tp4764
sVT951017.105
p4765
(I1906
I3
tp4766
sVT990504.109
p4767
(I551
I2
tp4768
sVT951019.59
p4769
(I2171
I2
tp4770
sVT951018.234
p4771
(I2095
I3
tp4772
sVT951018.235
p4773
(I2096
I1
tp4774
sVT951018.236
p4775
(I2097
I1
tp4776
sVT951018.237
p4777
(I2098
I1
tp4778
sVT951018.231
p4779
(I2092
I2
tp4780
sVT951018.232
p4781
(I2093
I2
tp4782
sVT951018.233
p4783
(I2094
I2
tp4784
sVT951018.238
p4785
(I2099
I1
tp4786
sVT951018.239
p4787
(I2100
I1
tp4788
sVT951019.296
p4789
(I2321
I3
tp4790
sVT951019.295
p4791
(I2320
I2
tp4792
sVT951019.294
p4793
(I2319
I2
tp4794
sVT951019.292
p4795
(I2318
I2
tp4796
sVT951019.291
p4797
(I2317
I2
tp4798
sVT951019.290
p4799
(I2316
I3
tp4800
sVT890426.74
p4801
(I2889
I3
tp4802
sVT951019.299
p4803
(I2322
I3
tp4804
sVT951018.90
p4805
(I2039
I3
tp4806
sVT951018.92
p4807
(I2040
I2
tp4808
sVT951018.94
p4809
(I2041
I2
tp4810
sVT951018.97
p4811
(I2042
I2
tp4812
sVT951018.99
p4813
(I2043
I2
tp4814
sVT890410.88
p4815
(I2861
I3
tp4816
sVT990505.42
p4817
(I654
I1
tp4818
sVT990505.43
p4819
(I655
I0
tp4820
sVT990505.40
p4821
(I652
I1
tp4822
sVT990505.41
p4823
(I653
I2
tp4824
sVT990505.46
p4825
(I656
I2
tp4826
sVT990505.47
p4827
(I657
I2
tp4828
sVT951019.307
p4829
(I2327
I3
tp4830
sVT890321.1
p4831
(I2823
I3
tp4832
sVT920710.145
p4833
(I1187
I2
tp4834
sVT920710.144
p4835
(I1186
I2
tp4836
sVT990505.49
p4837
(I658
I3
tp4838
sVT920710.141
p4839
(I1183
I2
tp4840
sVT920710.140
p4841
(I1182
I2
tp4842
sVT920710.143
p4843
(I1185
I2
tp4844
sVT920710.142
p4845
(I1184
I2
tp4846
sVT970603.140
p4847
(I2582
I1
tp4848
sVT951017.38
p4849
(I1866
I2
tp4850
sVT920710.88
p4851
(I1151
I3
tp4852
sVT971101.175
p4853
(I2688
I2
tp4854
sVT920710.83
p4855
(I1147
I3
tp4856
sVT990430.16
p4857
(I776
I1
tp4858
sVT920710.80
p4859
(I1146
I1
tp4860
sVT970312.215
p4861
(I2535
I3
tp4862
sVT920710.86
p4863
(I1150
I2
tp4864
sVT920710.85
p4865
(I1149
I2
tp4866
sVT920710.84
p4867
(I1148
I2
tp4868
sVT951020.158
p4869
(I2399
I1
tp4870
sVT970522.305
p4871
(I2578
I1
tp4872
sVT951020.155
p4873
(I2397
I2
tp4874
sVT990507.98
p4875
(I63
I1
tp4876
sVT951020.151
p4877
(I2395
I1
tp4878
sVT951020.152
p4879
(I2396
I1
tp4880
sVT990507.7
p4881
(I4
I2
tp4882
sVT951017.32
p4883
(I1861
I1
tp4884
sVT990507.5
p4885
(I3
I3
tp4886
sVT990507.4
p4887
(I2
I2
tp4888
sVT990507.3
p4889
(I1
I2
tp4890
sVT990507.2
p4891
(I0
I3
tp4892
sVT990507.9
p4893
(I5
I1
tp4894
sVT970613.157
p4895
(I2590
I3
tp4896
sVT951017.36
p4897
(I1864
I2
tp4898
sVT890418.97
p4899
(I2876
I1
tp4900
sVT890418.96
p4901
(I2875
I1
tp4902
sVT951019.129
p4903
(I2207
I2
tp4904
sVT951019.128
p4905
(I2206
I3
tp4906
sVT951019.24
p4907
(I2149
I2
tp4908
sVT990507.91
p4909
(I59
I1
tp4910
sVT951019.23
p4911
(I2148
I2
tp4912
sVT990507.90
p4913
(I58
I1
tp4914
sVT951019.125
p4915
(I2204
I2
tp4916
sVT951019.124
p4917
(I2203
I2
tp4918
sVT951019.127
p4919
(I2205
I1
tp4920
sVT970512.141
p4921
(I2570
I3
tp4922
sVT990430.177
p4923
(I862
I2
tp4924
sVT990430.174
p4925
(I860
I2
tp4926
sVT990430.175
p4927
(I861
I2
tp4928
sVT990430.172
p4929
(I859
I1
tp4930
sVT951019.21
p4931
(I2146
I2
tp4932
sVT990430.170
p4933
(I857
I1
tp4934
sVT990430.171
p4935
(I858
I2
tp4936
sVT951019.20
p4937
(I2145
I2
tp4938
sVT990430.178
p4939
(I863
I1
tp4940
sVT920714.87
p4941
(I1415
I3
tp4942
sVT920714.84
p4943
(I1414
I1
tp4944
sVT920714.82
p4945
(I1413
I1
tp4946
sVT920714.80
p4947
(I1412
I2
tp4948
sVT970430.141
p4949
(I2562
I3
tp4950
sVT920714.89
p4951
(I1417
I1
tp4952
sVT920714.88
p4953
(I1416
I1
tp4954
sVT990430.28
p4955
(I780
I1
tp4956
sVT970702.157
p4957
(I2605
I2
tp4958
sVT920711.128
p4959
(I1035
I3
tp4960
sVT920711.129
p4961
(I1036
I2
tp4962
sVT920711.126
p4963
(I1034
I2
tp4964
sVT920711.124
p4965
(I1033
I2
tp4966
sVT990430.27
p4967
(I779
I2
tp4968
sVT920711.123
p4969
(I1032
I2
tp4970
sVT920711.121
p4971
(I1030
I2
tp4972
sVT990507.44
p4973
(I34
I3
tp4974
sVT990507.46
p4975
(I35
I3
tp4976
sVT990507.47
p4977
(I36
I2
tp4978
sVT990507.40
p4979
(I31
I2
tp4980
sVT990507.41
p4981
(I32
I2
tp4982
sVT990507.42
p4983
(I33
I1
tp4984
sVT951020.15
p4985
(I2336
I2
tp4986
sVT951019.28
p4987
(I2151
I1
tp4988
sVT990507.48
p4989
(I37
I2
tp4990
sVT990507.49
p4991
(I38
I1
tp4992
sVT951016.221
p4993
(I1812
I1
tp4994
sVT951016.220
p4995
(I1811
I1
tp4996
sVT951016.223
p4997
(I1813
I2
tp4998
sVT951016.224
p4999
(I1814
I2
tp5000
sVT951016.227
p5001
(I1816
I1
tp5002
sVT951016.226
p5003
(I1815
I2
tp5004
sVT951016.229
p5005
(I1818
I2
tp5006
sVT951016.228
p5007
(I1817
I1
tp5008
sVT951018.9
p5009
(I1998
I2
tp5010
sVT970416.152
p5011
(I2556
I1
tp5012
sVT951018.3
p5013
(I1996
I2
tp5014
sVT951018.2
p5015
(I1995
I2
tp5016
sVT990505.121
p5017
(I710
I1
tp5018
sVT951017.264
p5019
(I1993
I1
tp5020
sVT951017.265
p5021
(I1994
I1
tp5022
sVT971119.63
p5023
(I2702
I2
tp5024
sVT951017.260
p5025
(I1990
I3
tp5026
sVT951017.261
p5027
(I1991
I2
tp5028
sVT951017.263
p5029
(I1992
I1
tp5030
sVT951020.229
p5031
(I2449
I1
tp5032
sVT970414.163
p5033
(I2554
I2
tp5034
sVT970815.253
p5035
(I2636
I2
tp5036
sVT951016.49
p5037
(I1717
I1
tp5038
sVT951016.44
p5039
(I1715
I2
tp5040
sVT951016.47
p5041
(I1716
I2
tp5042
sVT951016.40
p5043
(I1712
I2
tp5044
sVT951016.41
p5045
(I1713
I2
tp5046
sVT951016.42
p5047
(I1714
I2
tp5048
sVT951020.176
p5049
(I2411
I1
tp5050
sVT951020.177
p5051
(I2412
I1
tp5052
sVT990430.208
p5053
(I881
I2
tp5054
sVT951020.175
p5055
(I2410
I1
tp5056
sVT990430.201
p5057
(I879
I1
tp5058
sVT990430.205
p5059
(I880
I2
tp5060
sVT951020.170
p5061
(I2406
I2
tp5062
sVT990430.191
p5063
(I874
I2
tp5064
sVT990430.192
p5065
(I875
I2
tp5066
sVT990430.193
p5067
(I876
I2
tp5068
sVT990430.194
p5069
(I877
I2
tp5070
sVT990430.195
p5071
(I878
I1
tp5072
sVT951014.391
p5073
(I1688
I1
tp5074
sVT951014.390
p5075
(I1687
I1
tp5076
sVT920714.68
p5077
(I1403
I1
tp5078
sVT951014.8
p5079
(I1509
I3
tp5080
sVT951014.4
p5081
(I1508
I2
tp5082
sVT920714.63
p5083
(I1398
I3
tp5084
sVT920714.62
p5085
(I1397
I3
tp5086
sVT920714.65
p5087
(I1400
I3
tp5088
sVT920714.64
p5089
(I1399
I3
tp5090
sVT920714.67
p5091
(I1402
I1
tp5092
sVT920714.66
p5093
(I1401
I3
tp5094
sVT920714.207
p5095
(I1493
I1
tp5096
sVT920714.204
p5097
(I1491
I1
tp5098
sVT920714.205
p5099
(I1492
I2
tp5100
sVT920714.202
p5101
(I1489
I1
tp5102
sVT920714.203
p5103
(I1490
I1
tp5104
sVT920714.200
p5105
(I1487
I2
tp5106
sVT920714.201
p5107
(I1488
I2
tp5108
sVT920714.208
p5109
(I1494
I3
tp5110
sVT920714.209
p5111
(I1495
I3
tp5112
sVT951016.159
p5113
(I1774
I3
tp5114
sVT951016.158
p5115
(I1773
I1
tp5116
sVT951020.178
p5117
(I2413
I2
tp5118
sVT951016.157
p5119
(I1772
I2
tp5120
sVT970823.330
p5121
(I2645
I2
tp5122
sVT971125.106
p5123
(I2707
I2
tp5124
sVT970609.84
p5125
(I2585
I2
tp5126
sVT990506.7
p5127
(I154
I1
tp5128
sVT990506.4
p5129
(I152
I2
tp5130
sVT990506.5
p5131
(I153
I3
tp5132
sVT971027.164
p5133
(I2681
I2
tp5134
sVT890313.36
p5135
(I2816
I3
tp5136
sVT971124.160
p5137
(I2706
I2
tp5138
sVT951017.213
p5139
(I1955
I2
tp5140
sVT890412.82
p5141
(I2869
I3
tp5142
sVT890215.146
p5143
(I2778
I2
tp5144
sVT970307.42
p5145
(I2530
I3
tp5146
sVT970610.145
p5147
(I2588
I2
tp5148
sVT890502.91
p5149
(I2895
I3
tp5150
sVT890425.234
p5151
(I2888
I2
tp5152
sVT951014.84
p5153
(I1547
I2
tp5154
sVT951017.166
p5155
(I1931
I2
tp5156
sVT920714.158
p5157
(I1458
I3
tp5158
sVT920714.159
p5159
(I1459
I1
tp5160
sVT920714.156
p5161
(I1456
I2
tp5162
sVT920714.157
p5163
(I1457
I1
tp5164
sVT920714.154
p5165
(I1454
I2
tp5166
sVT920714.155
p5167
(I1455
I2
tp5168
sVT920714.152
p5169
(I1452
I2
tp5170
sVT920714.153
p5171
(I1453
I2
tp5172
sVT951014.93
p5173
(I1552
I2
tp5174
sVT951014.83
p5175
(I1546
I2
tp5176
sVT890113.88
p5177
(I2739
I2
tp5178
sVT951020.2
p5179
(I2331
I2
tp5180
sVT951020.3
p5181
(I2332
I2
tp5182
sVT951014.81
p5183
(I1544
I2
tp5184
sVT990504.110
p5185
(I552
I2
tp5186
sVT990504.111
p5187
(I553
I2
tp5188
sVT990504.112
p5189
(I554
I3
tp5190
sVT990504.113
p5191
(I555
I3
tp5192
sVT951019.45
p5193
(I2161
I2
tp5194
sVT951019.44
p5195
(I2160
I2
tp5196
sVT990504.116
p5197
(I556
I2
tp5198
sVT990504.117
p5199
(I557
I2
tp5200
sVT990504.118
p5201
(I558
I2
tp5202
sVT951019.48
p5203
(I2163
I2
tp5204
sVT951018.203
p5205
(I2073
I1
tp5206
sVT951018.202
p5207
(I2072
I1
tp5208
sVT951018.205
p5209
(I2075
I2
tp5210
sVT951018.204
p5211
(I2074
I2
tp5212
sVT951018.207
p5213
(I2076
I1
tp5214
sVT890420.143
p5215
(I2883
I2
tp5216
sVT970307.266
p5217
(I2532
I2
tp5218
sVT990504.34
p5219
(I490
I1
tp5220
sVT990504.35
p5221
(I491
I2
tp5222
sVT990504.36
p5223
(I492
I1
tp5224
sVT951019.287
p5225
(I2314
I2
tp5226
sVT990504.30
p5227
(I488
I3
tp5228
sVT951019.281
p5229
(I2309
I2
tp5230
sVT951019.282
p5231
(I2310
I2
tp5232
sVT990504.33
p5233
(I489
I2
tp5234
sVT990504.38
p5235
(I493
I1
tp5236
sVT990504.39
p5237
(I494
I1
tp5238
sVT890310.71
p5239
(I2812
I3
tp5240
sVT971105.192
p5241
(I2691
I3
tp5242
sVT970515.161
p5243
(I2572
I2
tp5244
sVT890203.59
p5245
(I2763
I3
tp5246
sVT970820.179
p5247
(I2641
I1
tp5248
sVT920710.152
p5249
(I1191
I2
tp5250
sVT990505.50
p5251
(I659
I1
tp5252
sVT920710.150
p5253
(I1189
I2
tp5254
sVT920710.151
p5255
(I1190
I1
tp5256
sVT890103.246
p5257
(I2734
I2
tp5258
sVT920710.154
p5259
(I1193
I1
tp5260
sVT920710.155
p5261
(I1194
I2
tp5262
sVT990505.59
p5263
(I663
I2
tp5264
sVT990505.58
p5265
(I662
I2
tp5266
sVT920710.159
p5267
(I1195
I2
tp5268
sVT951019.50
p5269
(I2164
I1
tp5270
sVT951019.51
p5271
(I2165
I1
tp5272
sVT951019.57
p5273
(I2169
I2
tp5274
sVT890306.126
p5275
(I2809
I2
tp5276
sVT951019.54
p5277
(I2168
I2
tp5278
sVT890313.132
p5279
(I2818
I2
tp5280
sVT951019.53
p5281
(I2167
I2
tp5282
sVT890415.164
p5283
(I2872
I2
tp5284
sVT951019.58
p5285
(I2170
I2
tp5286
sVT990507.153
p5287
(I103
I2
tp5288
sVT990507.152
p5289
(I102
I1
tp5290
sVT990507.151
p5291
(I101
I1
tp5292
sVT990507.150
p5293
(I100
I1
tp5294
sVT990507.157
p5295
(I106
I2
tp5296
sVT990507.156
p5297
(I105
I3
tp5298
sVT990507.154
p5299
(I104
I2
tp5300
sVT990507.158
p5301
(I107
I2
tp5302
sVT890209.90
p5303
(I2770
I3
tp5304
sVT970708.137
p5305
(I2610
I2
tp5306
sVT990505.16
p5307
(I635
I3
tp5308
sVT990506.79
p5309
(I202
I2
tp5310
sVT990506.76
p5311
(I200
I1
tp5312
sVT990506.77
p5313
(I201
I3
tp5314
sVT990506.75
p5315
(I199
I3
tp5316
sVT990506.72
p5317
(I197
I1
tp5318
sVT990506.73
p5319
(I198
I2
tp5320
sVT951019.138
p5321
(I2213
I1
tp5322
sVT951019.136
p5323
(I2211
I3
tp5324
sVT951019.137
p5325
(I2212
I2
tp5326
sVT951019.135
p5327
(I2210
I2
tp5328
sVT970409.254
p5329
(I2551
I2
tp5330
sVT951019.130
p5331
(I2208
I1
tp5332
sVT951019.131
p5333
(I2209
I2
tp5334
sVT890503.21
p5335
(I2896
I3
tp5336
sVT890330.61
p5337
(I2839
I3
tp5338
sVT970213.176
p5339
(I2517
I3
tp5340
sVT990507.59
p5341
(I46
I2
tp5342
sVT990507.58
p5343
(I45
I2
tp5344
sVT990507.53
p5345
(I41
I1
tp5346
sVT971213.88
p5347
(I2723
I3
tp5348
sVT990430.54
p5349
(I783
I2
tp5350
sVT990507.50
p5351
(I39
I1
tp5352
sVT990507.57
p5353
(I44
I2
tp5354
sVT990507.56
p5355
(I43
I2
tp5356
sVT990507.54
p5357
(I42
I1
tp5358
sVT951017.76
p5359
(I1892
I3
tp5360
sVT951017.77
p5361
(I1893
I2
tp5362
sVT951017.74
p5363
(I1890
I2
tp5364
sVT951017.75
p5365
(I1891
I2
tp5366
sVT951017.72
p5367
(I1888
I2
tp5368
sVT951017.73
p5369
(I1889
I2
tp5370
sVT951017.71
p5371
(I1887
I2
tp5372
sVT970919.43
p5373
(I2657
I2
tp5374
sVT951017.79
p5375
(I1894
I2
tp5376
sVT951016.236
p5377
(I1821
I2
tp5378
sVT951016.237
p5379
(I1822
I2
tp5380
sVT951016.230
p5381
(I1819
I1
tp5382
sVT951016.231
p5383
(I1820
I2
tp5384
sVT951016.238
p5385
(I1823
I2
tp5386
sVT951016.239
p5387
(I1824
I3
tp5388
sVT951017.259
p5389
(I1989
I3
tp5390
sVT951017.251
p5391
(I1983
I2
tp5392
sVT951017.250
p5393
(I1982
I2
tp5394
sVT951020.211
p5395
(I2438
I2
tp5396
sVT951017.252
p5397
(I1984
I2
tp5398
sVT951017.255
p5399
(I1986
I2
tp5400
sVT951017.254
p5401
(I1985
I3
tp5402
sVT951017.257
p5403
(I1988
I1
tp5404
sVT951017.256
p5405
(I1987
I2
tp5406
sVT951020.188
p5407
(I2421
I2
tp5408
sVT971211.30
p5409
(I2718
I2
tp5410
sVT951020.183
p5411
(I2416
I1
tp5412
sVT951020.181
p5413
(I2415
I2
tp5414
sVT951020.180
p5415
(I2414
I2
tp5416
sVT951020.187
p5417
(I2420
I2
tp5418
sVT951020.186
p5419
(I2419
I1
tp5420
sVT951020.185
p5421
(I2418
I1
tp5422
sVT951020.184
p5423
(I2417
I1
tp5424
sVT951016.53
p5425
(I1720
I2
tp5426
sVT951016.52
p5427
(I1719
I1
tp5428
sVT951016.50
p5429
(I1718
I1
tp5430
sVT951016.57
p5431
(I1723
I3
tp5432
sVT951016.56
p5433
(I1722
I2
tp5434
sVT951016.55
p5435
(I1721
I1
tp5436
sVT951016.58
p5437
(I1724
I1
tp5438
sVT970606.135
p5439
(I2584
I3
tp5440
sVT890329.62
p5441
(I2837
I2
tp5442
sVT990430.238
p5443
(I905
I1
tp5444
sVT890404.75
p5445
(I2852
I2
tp5446
sVT990430.235
p5447
(I903
I1
tp5448
sVT990430.234
p5449
(I902
I1
tp5450
sVT990430.236
p5451
(I904
I1
tp5452
sVT990430.231
p5453
(I900
I3
tp5454
sVT990430.232
p5455
(I901
I2
tp5456
sVT951016.184
p5457
(I1783
I3
tp5458
sVT951020.53
p5459
(I2358
I2
tp5460
sVT951014.388
p5461
(I1685
I2
tp5462
sVT951014.389
p5463
(I1686
I1
tp5464
sVT951014.385
p5465
(I1682
I2
tp5466
sVT951014.386
p5467
(I1683
I3
tp5468
sVT951014.387
p5469
(I1684
I2
tp5470
sVT951014.380
p5471
(I1678
I3
tp5472
sVT951014.381
p5473
(I1679
I2
tp5474
sVT951014.382
p5475
(I1680
I2
tp5476
sVT951014.383
p5477
(I1681
I1
tp5478
sVT951017.52
p5479
(I1874
I1
tp5480
sVT920714.58
p5481
(I1395
I1
tp5482
sVT920714.59
p5483
(I1396
I2
tp5484
sVT970212.32
p5485
(I2516
I0
tp5486
sVT920714.54
p5487
(I1391
I2
tp5488
sVT920714.55
p5489
(I1392
I1
tp5490
sVT920714.56
p5491
(I1393
I1
tp5492
sVT920714.57
p5493
(I1394
I3
tp5494
sVT920714.50
p5495
(I1388
I3
tp5496
sVT920714.51
p5497
(I1389
I2
tp5498
sVT920714.52
p5499
(I1390
I1
tp5500
sVT990505.191
p5501
(I754
I1
tp5502
sVT990505.190
p5503
(I753
I1
tp5504
sVT990505.193
p5505
(I756
I1
tp5506
sVT990505.192
p5507
(I755
I1
tp5508
sVT990505.194
p5509
(I757
I3
tp5510
sVT990505.197
p5511
(I759
I2
tp5512
sVT990505.196
p5513
(I758
I3
tp5514
sVT990505.199
p5515
(I761
I2
tp5516
sVT990505.198
p5517
(I760
I2
tp5518
sVT951019.104
p5519
(I2195
I1
tp5520
sVT951016.140
p5521
(I1765
I2
tp5522
sVT951016.141
p5523
(I1766
I3
tp5524
sVT951016.142
p5525
(I1767
I2
tp5526
sVT990507.21
p5527
(I15
I1
tp5528
sVT951016.144
p5529
(I1769
I2
tp5530
sVT951016.145
p5531
(I1770
I2
tp5532
sVT951016.146
p5533
(I1771
I2
tp5534
sVT970217.164
p5535
(I2520
I3
tp5536
sVT951020.34
p5537
(I2345
I3
tp5538
sVT970917.202
p5539
(I2654
I2
tp5540
sVT951020.35
p5541
(I2346
I2
tp5542
sVT890406.1
p5543
(I2856
I3
tp5544
sVT890201.44
p5545
(I2760
I3
tp5546
sVT951020.37
p5547
(I2348
I2
tp5548
sVT951014.82
p5549
(I1545
I2
tp5550
sVT971027.159
p5551
(I2680
I2
tp5552
sVT951019.268
p5553
(I2300
I1
tp5554
sVT951020.38
p5555
(I2349
I2
tp5556
sVT990503.13
p5557
(I346
I3
tp5558
sVT990503.12
p5559
(I345
I2
tp5560
sVT990503.10
p5561
(I344
I2
tp5562
sVT990503.17
p5563
(I348
I1
tp5564
sVT990503.14
p5565
(I347
I1
tp5566
sVT990503.19
p5567
(I350
I3
tp5568
sVT990503.18
p5569
(I349
I3
tp5570
sVT951019.261
p5571
(I2293
I2
tp5572
sVT951019.266
p5573
(I2298
I1
tp5574
sVT951019.267
p5575
(I2299
I1
tp5576
sVT951019.264
p5577
(I2296
I2
tp5578
sVT990504.125
p5579
(I563
I2
tp5580
sVT990504.124
p5581
(I562
I2
tp5582
sVT990504.127
p5583
(I564
I2
tp5584
sVT990505.178
p5585
(I746
I1
tp5586
sVT990504.121
p5587
(I559
I2
tp5588
sVT951019.71
p5589
(I2180
I2
tp5590
sVT990504.123
p5591
(I561
I2
tp5592
sVT990504.122
p5593
(I560
I2
tp5594
sVT990505.173
p5595
(I745
I3
tp5596
sVT951018.217
p5597
(I2085
I2
tp5598
sVT990505.171
p5599
(I744
I2
tp5600
sVT951018.215
p5601
(I2083
I2
tp5602
sVT990504.129
p5603
(I566
I1
tp5604
sVT990504.128
p5605
(I565
I1
tp5606
sVT951018.210
p5607
(I2079
I2
tp5608
sVT890225.29
p5609
(I2796
I3
tp5610
sVT890429.19
p5611
(I2893
I2
tp5612
sVT990506.251
p5613
(I334
I1
tp5614
sVT990506.250
p5615
(I333
I1
tp5616
sVT990506.253
p5617
(I336
I3
tp5618
sVT990506.252
p5619
(I335
I1
tp5620
sVT990506.254
p5621
(I337
I2
tp5622
sVT890331.73
p5623
(I2843
I3
tp5624
sVT990507.207
p5625
(I138
I1
tp5626
sVT970801.205
p5627
(I2627
I2
tp5628
sVT970806.42
p5629
(I2628
I2
tp5630
sVT990507.205
p5631
(I137
I2
tp5632
sVT951018.102
p5633
(I2045
I3
tp5634
sVT951018.100
p5635
(I2044
I2
tp5636
sVT990505.65
p5637
(I667
I2
tp5638
sVT990505.66
p5639
(I668
I2
tp5640
sVT990505.60
p5641
(I664
I3
tp5642
sVT990505.61
p5643
(I665
I1
tp5644
sVT920710.121
p5645
(I1176
I2
tp5646
sVT970609.124
p5647
(I2586
I2
tp5648
sVT990505.68
p5649
(I669
I2
tp5650
sVT951020.200
p5651
(I2430
I3
tp5652
sVT951020.201
p5653
(I2431
I2
tp5654
sVT920710.149
p5655
(I1188
I1
tp5656
sVT951014.48
p5657
(I1532
I2
tp5658
sVT951014.49
p5659
(I1533
I2
tp5660
sVT951014.42
p5661
(I1528
I3
tp5662
sVT951014.43
p5663
(I1529
I1
tp5664
sVT951014.46
p5665
(I1531
I2
tp5666
sVT951014.45
p5667
(I1530
I1
tp5668
sVT990504.29
p5669
(I487
I3
tp5670
sVT990504.28
p5671
(I486
I2
tp5672
sVT951020.206
p5673
(I2435
I3
tp5674
sVT990504.23
p5675
(I481
I3
tp5676
sVT990504.27
p5677
(I485
I2
tp5678
sVT990504.26
p5679
(I484
I1
tp5680
sVT990504.25
p5681
(I483
I1
tp5682
sVT990504.24
p5683
(I482
I2
tp5684
sVT990507.140
p5685
(I92
I2
tp5686
sVT990507.141
p5687
(I93
I2
tp5688
sVT951020.174
p5689
(I2409
I1
tp5690
sVT990507.143
p5691
(I94
I2
tp5692
sVT951020.172
p5693
(I2408
I3
tp5694
sVT990507.145
p5695
(I95
I1
tp5696
sVT990507.146
p5697
(I96
I1
tp5698
sVT990507.147
p5699
(I97
I1
tp5700
sVT990507.148
p5701
(I98
I1
tp5702
sVT990507.149
p5703
(I99
I1
tp5704
sVT920710.235
p5705
(I1241
I1
tp5706
sVT990506.68
p5707
(I196
I2
tp5708
sVT990506.65
p5709
(I193
I1
tp5710
sVT990506.64
p5711
(I192
I1
tp5712
sVT990506.67
p5713
(I195
I1
tp5714
sVT990506.66
p5715
(I194
I1
tp5716
sVT990506.61
p5717
(I189
I1
tp5718
sVT990506.60
p5719
(I188
I2
tp5720
sVT990506.63
p5721
(I191
I1
tp5722
sVT990506.62
p5723
(I190
I2
tp5724
sVT971110.203
p5725
(I2695
I2
tp5726
sVT971025.198
p5727
(I2679
I1
tp5728
sVT990507.28
p5729
(I21
I2
tp5730
sVT990507.29
p5731
(I22
I1
tp5732
sVT990507.27
p5733
(I20
I2
tp5734
sVT990507.24
p5735
(I18
I2
tp5736
sVT990507.25
p5737
(I19
I1
tp5738
sVT990507.22
p5739
(I16
I3
tp5740
sVT990507.23
p5741
(I17
I2
tp5742
sVT990430.42
p5743
(I782
I1
tp5744
sVT951017.65
p5745
(I1884
I2
tp5746
sVT951017.64
p5747
(I1883
I2
tp5748
sVT951020.36
p5749
(I2347
I2
tp5750
sVT951017.66
p5751
(I1885
I2
tp5752
sVT951020.30
p5753
(I2343
I2
tp5754
sVT951017.60
p5755
(I1882
I2
tp5756
sVT951020.32
p5757
(I2344
I2
tp5758
sVT970702.184
p5759
(I2606
I3
tp5760
sVT951017.69
p5761
(I1886
I1
tp5762
sVT951020.39
p5763
(I2350
I2
tp5764
sVT951020.208
p5765
(I2437
I3
tp5766
sVT951017.248
p5767
(I1981
I3
tp5768
sVT951017.246
p5769
(I1979
I2
tp5770
sVT951017.247
p5771
(I1980
I1
tp5772
sVT951017.244
p5773
(I1977
I2
tp5774
sVT951017.245
p5775
(I1978
I2
tp5776
sVT951017.242
p5777
(I1976
I3
tp5778
sVT951020.205
p5779
(I2434
I3
tp5780
sVT951017.240
p5781
(I1975
I2
tp5782
sVT951020.207
p5783
(I2436
I2
tp5784
sVT951020.198
p5785
(I2429
I1
tp5786
sVT890223.132
p5787
(I2794
I2
tp5788
sVT951020.190
p5789
(I2422
I2
tp5790
sVT951020.191
p5791
(I2423
I2
tp5792
sVT951020.193
p5793
(I2424
I1
tp5794
sVT951020.194
p5795
(I2425
I1
tp5796
sVT951020.195
p5797
(I2426
I1
tp5798
sVT951020.196
p5799
(I2427
I1
tp5800
sVT951020.197
p5801
(I2428
I1
tp5802
sVT951016.24
p5803
(I1704
I1
tp5804
sVT951016.22
p5805
(I1702
I2
tp5806
sVT951016.23
p5807
(I1703
I2
tp5808
sVT951016.20
p5809
(I1701
I1
tp5810
sVT951019.195
p5811
(I2251
I3
tp5812
sVT970703.41
p5813
(I2607
I1
tp5814
sVT951016.29
p5815
(I1705
I1
tp5816
s.